Archive member included because of file (symbol)

contiki-rm090.a(param-repo.o)
                              obj_rm090/contiki-rm090-main.o (param_repo_init)
contiki-rm090.a(serial-control-)
                              obj_rm090/contiki-rm090-main.o (serial_control_interface_init)
contiki-rm090.a(contiki-rm090-p)
                              obj_rm090/contiki-rm090-main.o (init_platform)
contiki-rm090.a(uart1.o)      obj_rm090/contiki-rm090-main.o (uart1_active)
contiki-rm090.a(uart1-putchar.o)
                              obj_rm090/contiki-rm090-main.o (putchar)
contiki-rm090.a(sensors.o)    udp-server.co (sensors_event)
contiki-rm090.a(button-sensor.o)
                              udp-server.co (button_sensor)
contiki-rm090.a(radio-sensor.o)
                              udp-server.co (radio_sensor)
contiki-rm090.a(cc2520.o)     contiki-rm090.a(radio-sensor.o) (cc2520_last_rssi)
contiki-rm090.a(cc2520-arch.o)
                              contiki-rm090.a(cc2520.o) (cc2520_arch_init)
contiki-rm090.a(msp430.o)     obj_rm090/contiki-rm090-main.o (msp430_cpu_init)
contiki-rm090.a(clock.o)      udp-server.co (clock_time)
contiki-rm090.a(leds.o)       obj_rm090/contiki-rm090-main.o (leds_init)
contiki-rm090.a(leds-arch.o)  contiki-rm090.a(msp430.o) (leds_arch_init)
contiki-rm090.a(watchdog.o)   contiki-rm090.a(uart1.o) (watchdog_periodic)
contiki-rm090.a(rtimer-arch.o)
                              udp-server.co (rtimer_arch_init)
contiki-rm090.a(ctimer.o)     obj_rm090/contiki-rm090-main.o (ctimer_init)
contiki-rm090.a(autostart.o)  obj_rm090/contiki-rm090-main.o (autostart_start)
contiki-rm090.a(energest.o)   obj_rm090/contiki-rm090-main.o (energest_type_set)
contiki-rm090.a(etimer.o)     contiki-rm090.a(clock.o) (etimer_request_poll)
contiki-rm090.a(process.o)    udp-server.co (process_current)
contiki-rm090.a(rtimer.o)     udp-server.co (rtimer_init)
contiki-rm090.a(timer.o)      contiki-rm090.a(button-sensor.o) (timer_set)
contiki-rm090.a(serial-line.o)
                              contiki-rm090.a(serial-control-) (serial_line_event_message)
contiki-rm090.a(list.o)       contiki-rm090.a(ctimer.o) (list_init)
contiki-rm090.a(ringbuf.o)    contiki-rm090.a(serial-line.o) (ringbuf_init)
contiki-rm090.a(uip-ds6.o)    udp-server.co (uip_ds6_addr_lookup)
contiki-rm090.a(uip-ds6-route.o)
                              contiki-rm090.a(uip-ds6.o) (uip_ds6_route_init)
contiki-rm090.a(uip6.o)       udp-server.co (uip_aligned_buf)
contiki-rm090.a(uip-ds6-nbr.o)
                              contiki-rm090.a(uip-ds6.o) (uip_ds6_neighbors_init)
contiki-rm090.a(uip-nd6.o)    contiki-rm090.a(uip6.o) (uip_nd6_init)
contiki-rm090.a(sicslowpan.o)
                              obj_rm090/contiki-rm090-main.o (sicslowpan_driver)
contiki-rm090.a(tcpip.o)      contiki-rm090.a(sicslowpan.o) (tcpip_set_outputfunc)
contiki-rm090.a(uip-debug.o)  contiki-rm090.a(uip-ds6-route.o) (uip_debug_ipaddr_print)
contiki-rm090.a(rpl-control.o)
                              udp-server.co (rpl_dio_interval_doublings)
contiki-rm090.a(rpl-ext-header.)
                              contiki-rm090.a(uip6.o) (rpl_verify_hbh_header)
contiki-rm090.a(rpl.o)        contiki-rm090.a(uip-ds6-nbr.o) (rpl_link_neighbor_callback)
contiki-rm090.a(rpl-dag.o)    contiki-rm090.a(rpl-ext-header.) (rpl_parents)
contiki-rm090.a(queuebuf.o)   obj_rm090/contiki-rm090-main.o (queuebuf_init)
contiki-rm090.a(nbr-table.o)  contiki-rm090.a(uip-ds6-route.o) (nbr_table_register)
contiki-rm090.a(packetbuf.o)  contiki-rm090.a(cc2520.o) (packetbuf_set_datalen)
contiki-rm090.a(linkaddr.o)   obj_rm090/contiki-rm090-main.o (linkaddr_copy)
contiki-rm090.a(link-stats.o)
                              contiki-rm090.a(rpl-dag.o) (link_stats_from_lladdr)
contiki-rm090.a(framer-802154.o)
                              contiki-rm090.a(sicslowpan.o) (framer_802154)
contiki-rm090.a(csma.o)       udp-server.co (csma_driver)
contiki-rm090.a(frame802154.o)
                              contiki-rm090.a(framer-802154.o) (frame802154_get_pan_id)
contiki-rm090.a(mac.o)        contiki-rm090.a(csma.o) (mac_call_sent_callback)
contiki-rm090.a(macstats.o)   contiki-rm090.a(csma.o) (macstats_event_process)
contiki-rm090.a(nullrdc.o)    obj_rm090/contiki-rm090-main.o (nullrdc_driver)
contiki-rm090.a(nullsec.o)    contiki-rm090.a(sicslowpan.o) (nullsec_driver)
contiki-rm090.a(base64.o)     contiki-rm090.a(serial-control-) (base64_decode)
contiki-rm090.a(spi.o)        contiki-rm090.a(cc2520-arch.o) (spi_init)
contiki-rm090.a(stimer.o)     contiki-rm090.a(uip-ds6.o) (stimer_set)
contiki-rm090.a(memb.o)       contiki-rm090.a(uip-ds6-route.o) (memb_init)
contiki-rm090.a(random.o)     contiki-rm090.a(uip-ds6.o) (random_rand)
contiki-rm090.a(uip-icmp6.o)  contiki-rm090.a(uip6.o) (uip_icmp6_input)
contiki-rm090.a(rpl-icmp6.o)  contiki-rm090.a(rpl-dag.o) (rpl_icmp6_update_nbr_table)
contiki-rm090.a(rpl-of0.o)    contiki-rm090.a(rpl-dag.o) (rpl_of0)
contiki-rm090.a(rpl-timers.o)
                              contiki-rm090.a(rpl.o) (rpl_reset_periodic_timer)
contiki-rm090.a(rpl-nbr-policy.)
                              contiki-rm090.a(nbr-table.o) (rpl_nbr_policy_find_removable)
contiki-rm090.a(rpl-mrhof.o)  contiki-rm090.a(rpl-dag.o) (rpl_mrhof)
contiki-rm090.a(mac-sequence.o)
                              contiki-rm090.a(nullrdc.o) (mac_sequence_is_duplicate)
/opt/msp430-47-expr/bin/../lib/gcc/msp430/4.7.0/mcpu-430x/mmpy-16/msr20/mc20/libgcc.a(_udivmod16.o)
                              contiki-rm090.a(rpl-dag.o) (__udivhi3)
/opt/msp430-47-expr/bin/../lib/gcc/msp430/4.7.0/mcpu-430x/mmpy-16/msr20/mc20/libgcc.a(_divmod16.o)
                              contiki-rm090.a(sicslowpan.o) (__divhi3)
/opt/msp430-47-expr/bin/../lib/gcc/msp430/4.7.0/mcpu-430x/mmpy-16/msr20/mc20/libgcc.a(_udivmod32.o)
                              contiki-rm090.a(rpl-dag.o) (__udivsi3)
/opt/msp430-47-expr/bin/../lib/gcc/msp430/4.7.0/mcpu-430x/mmpy-16/msr20/mc20/libgcc.a(_divmod32.o)
                              contiki-rm090.a(link-stats.o) (__divsi3)
/opt/msp430-47-expr/bin/../lib/gcc/msp430/4.7.0/../../../../msp430/lib/mcpu-430x/mmpy-16/msr20/mc20/libc.a(atol.o)
                              udp-server.co (atol)
/opt/msp430-47-expr/bin/../lib/gcc/msp430/4.7.0/../../../../msp430/lib/mcpu-430x/mmpy-16/msr20/mc20/libc.a(atoi.o)
                              udp-server.co (atoi)
/opt/msp430-47-expr/bin/../lib/gcc/msp430/4.7.0/../../../../msp430/lib/mcpu-430x/mmpy-16/msr20/mc20/libc.a(strtol.o)
                              /opt/msp430-47-expr/bin/../lib/gcc/msp430/4.7.0/../../../../msp430/lib/mcpu-430x/mmpy-16/msr20/mc20/libc.a(atol.o) (strtol)
/opt/msp430-47-expr/bin/../lib/gcc/msp430/4.7.0/../../../../msp430/lib/mcpu-430x/mmpy-16/msr20/mc20/libc.a(printf.o)
                              contiki-rm090.a(serial-control-) (printf)
/opt/msp430-47-expr/bin/../lib/gcc/msp430/4.7.0/../../../../msp430/lib/mcpu-430x/mmpy-16/msr20/mc20/libc.a(vuprintf.o)
                              /opt/msp430-47-expr/bin/../lib/gcc/msp430/4.7.0/../../../../msp430/lib/mcpu-430x/mmpy-16/msr20/mc20/libc.a(printf.o) (vuprintf)
/opt/msp430-47-expr/bin/../lib/gcc/msp430/4.7.0/../../../../msp430/lib/mcpu-430x/mmpy-16/msr20/mc20/libc.a(puts.o)
                              udp-server.co (puts)
/opt/msp430-47-expr/bin/../lib/gcc/msp430/4.7.0/../../../../msp430/lib/mcpu-430x/mmpy-16/msr20/mc20/libc.a(rand.o)
                              contiki-rm090.a(random.o) (rand)
/opt/msp430-47-expr/bin/../lib/gcc/msp430/4.7.0/../../../../msp430/lib/mcpu-430x/mmpy-16/msr20/mc20/libc.a(strncmp.o)
                              udp-server.co (strncmp)
/opt/msp430-47-expr/bin/../lib/gcc/msp430/4.7.0/../../../../msp430/lib/mcpu-430x/mmpy-16/msr20/mc20/libc.a(memcmp.o)
                              contiki-rm090.a(uip-ds6.o) (memcmp)
/opt/msp430-47-expr/bin/../lib/gcc/msp430/4.7.0/../../../../msp430/lib/mcpu-430x/mmpy-16/msr20/mc20/libc.a(memcpy.o)
                              udp-server.co (memcpy)
/opt/msp430-47-expr/bin/../lib/gcc/msp430/4.7.0/../../../../msp430/lib/mcpu-430x/mmpy-16/msr20/mc20/libc.a(memmove.o)
                              contiki-rm090.a(uip6.o) (memmove)
/opt/msp430-47-expr/bin/../lib/gcc/msp430/4.7.0/../../../../msp430/lib/mcpu-430x/mmpy-16/msr20/mc20/libc.a(memset.o)
                              obj_rm090/contiki-rm090-main.o (memset)
/opt/msp430-47-expr/bin/../lib/gcc/msp430/4.7.0/../../../../msp430/lib/mcpu-430x/mmpy-16/msr20/mc20/libc.a(ldiv.o)
                              /opt/msp430-47-expr/bin/../lib/gcc/msp430/4.7.0/../../../../msp430/lib/mcpu-430x/mmpy-16/msr20/mc20/libc.a(strtol.o) (ldiv)
/opt/msp430-47-expr/bin/../lib/gcc/msp430/4.7.0/../../../../msp430/lib/mcpu-430x/mmpy-16/msr20/mc20/libc.a(errno.o)
                              /opt/msp430-47-expr/bin/../lib/gcc/msp430/4.7.0/../../../../msp430/lib/mcpu-430x/mmpy-16/msr20/mc20/libc.a(strtol.o) (errno)
/opt/msp430-47-expr/bin/../lib/gcc/msp430/4.7.0/mcpu-430x/mmpy-16/msr20/mc20/libgcc.a(_mulsi3.o)
                              /opt/msp430-47-expr/bin/../lib/gcc/msp430/4.7.0/../../../../msp430/lib/mcpu-430x/mmpy-16/msr20/mc20/libc.a(strtol.o) (__mulsi3)
/opt/msp430-47-expr/bin/../lib/gcc/msp430/4.7.0/mcpu-430x/mmpy-16/msr20/mc20/libgcc.a(_udivmod64.o)
                              /opt/msp430-47-expr/bin/../lib/gcc/msp430/4.7.0/../../../../msp430/lib/mcpu-430x/mmpy-16/msr20/mc20/libc.a(vuprintf.o) (__udivdi3)
/opt/msp430-47-expr/bin/../lib/gcc/msp430/4.7.0/mcpu-430x/mmpy-16/msr20/mc20/libcrt0.a(_reset_vector__.o)
                              (_reset_vector__)
/opt/msp430-47-expr/bin/../lib/gcc/msp430/4.7.0/mcpu-430x/mmpy-16/msr20/mc20/libcrt0.a(__watchdog_support.o)
                              /opt/msp430-47-expr/bin/../lib/gcc/msp430/4.7.0/mcpu-430x/mmpy-16/msr20/mc20/libcrt0.a(_reset_vector__.o) (__watchdog_support)
/opt/msp430-47-expr/bin/../lib/gcc/msp430/4.7.0/mcpu-430x/mmpy-16/msr20/mc20/libcrt0.a(__init_stack.o)
                              /opt/msp430-47-expr/bin/../lib/gcc/msp430/4.7.0/mcpu-430x/mmpy-16/msr20/mc20/libcrt0.a(_reset_vector__.o) (__init_stack)
/opt/msp430-47-expr/bin/../lib/gcc/msp430/4.7.0/mcpu-430x/mmpy-16/msr20/mc20/libcrt0.a(__low_level_init.o)
                              /opt/msp430-47-expr/bin/../lib/gcc/msp430/4.7.0/mcpu-430x/mmpy-16/msr20/mc20/libcrt0.a(_reset_vector__.o) (__low_level_init)
/opt/msp430-47-expr/bin/../lib/gcc/msp430/4.7.0/mcpu-430x/mmpy-16/msr20/mc20/libcrt0.a(_copy_data.o)
                              /opt/msp430-47-expr/bin/../lib/gcc/msp430/4.7.0/mcpu-430x/mmpy-16/msr20/mc20/libcrt0.a(_reset_vector__.o) (__do_copy_data)
/opt/msp430-47-expr/bin/../lib/gcc/msp430/4.7.0/mcpu-430x/mmpy-16/msr20/mc20/libcrt0.a(_clear_bss.o)
                              /opt/msp430-47-expr/bin/../lib/gcc/msp430/4.7.0/mcpu-430x/mmpy-16/msr20/mc20/libcrt0.a(_reset_vector__.o) (__do_clear_bss)
/opt/msp430-47-expr/bin/../lib/gcc/msp430/4.7.0/mcpu-430x/mmpy-16/msr20/mc20/libcrt0.a(__stop_progExec__.o)
                              /opt/msp430-47-expr/bin/../lib/gcc/msp430/4.7.0/mcpu-430x/mmpy-16/msr20/mc20/libcrt0.a(_reset_vector__.o) (__stop_progExec__)
/opt/msp430-47-expr/bin/../lib/gcc/msp430/4.7.0/mcpu-430x/mmpy-16/msr20/mc20/libcrt0.a(_endless_loop__.o)
                              /opt/msp430-47-expr/bin/../lib/gcc/msp430/4.7.0/mcpu-430x/mmpy-16/msr20/mc20/libcrt0.a(_reset_vector__.o) (_endless_loop__)
/opt/msp430-47-expr/bin/../lib/gcc/msp430/4.7.0/mcpu-430x/mmpy-16/msr20/mc20/libcrt0.a(_unexpected_.o)
                              /opt/msp430-47-expr/bin/../lib/gcc/msp430/4.7.0/mcpu-430x/mmpy-16/msr20/mc20/crt0ivtbl64.o (_unexpected_)

Allocating common symbols
Common symbol       size              file

uip_ds6_timer_ra    0x8               contiki-rm090.a(uip-ds6.o)
args                0xe               contiki-rm090.a(serial-control-)
uip_ds6_if          0xec              contiki-rm090.a(uip-ds6.o)
uip_ds6_netif_addr_list_offset
                    0x1               contiki-rm090.a(uip-ds6.o)
uip_len             0x2               contiki-rm090.a(uip6.o)
params              0xc8              contiki-rm090.a(param-repo.o)
cc2520_sfd_counter  0x1               contiki-rm090.a(cc2520.o)
errno               0x2               /opt/msp430-47-expr/bin/../lib/gcc/msp430/4.7.0/../../../../msp430/lib/mcpu-430x/mmpy-16/msr20/mc20/libc.a(errno.o)
cc2520_sfd_start_time
                    0x2               contiki-rm090.a(cc2520.o)
uip_ds6_addr_size   0x1               contiki-rm090.a(uip-ds6.o)
uip_sappdata        0x2               contiki-rm090.a(uip6.o)
packetbuf_addrs     0x10              contiki-rm090.a(packetbuf.o)
uip_acc32           0x4               contiki-rm090.a(uip6.o)
cc2520_sfd_end_time
                    0x2               contiki-rm090.a(cc2520.o)
cc2520_time_of_departure
                    0x2               contiki-rm090.a(cc2520.o)
uip_ds6_prefix_list
                    0x5a              contiki-rm090.a(uip-ds6.o)
process_maxevents   0x1               contiki-rm090.a(process.o)
cc2520_packets_seen
                    0x2               contiki-rm090.a(cc2520.o)
uip_lladdr          0x8               contiki-rm090.a(uip6.o)
uip_aligned_buf     0xf0              contiki-rm090.a(uip6.o)
uip_flags           0x1               contiki-rm090.a(uip6.o)
periodic_timer      0x16              contiki-rm090.a(link-stats.o)
uip_ds6_timer_periodic
                    0xc               contiki-rm090.a(uip-ds6.o)
uip_next_hdr        0x2               contiki-rm090.a(uip6.o)
linkaddr_node_addr  0x8               contiki-rm090.a(linkaddr.o)
cc2520_packets_read
                    0x2               contiki-rm090.a(cc2520.o)
default_instance    0x2               contiki-rm090.a(rpl-dag.o)
cc2520_last_rssi    0x1               contiki-rm090.a(cc2520.o)
rx_buffer           0x80              contiki-rm090.a(serial-control-)
tx_buffer           0x60              contiki-rm090.a(serial-control-)
uip_udp_conn        0x2               contiki-rm090.a(uip6.o)
cc2520_time_of_arrival
                    0x2               contiki-rm090.a(cc2520.o)
packetbuf_attrs     0x1e              contiki-rm090.a(packetbuf.o)
msp430_dco_required
                    0x2               contiki-rm090.a(msp430.o)
collect_buffer      0x80              contiki-rm090.a(serial-control-)
instance_table      0x10e             contiki-rm090.a(rpl-dag.o)
uip_appdata         0x2               contiki-rm090.a(uip6.o)
uip_conn            0x2               contiki-rm090.a(uip6.o)
tcpip_event         0x1               contiki-rm090.a(tcpip.o)
uip_conns           0xb0              contiki-rm090.a(uip6.o)
cc2520_authority_level_of_sender
                    0x2               contiki-rm090.a(cc2520.o)
uip_listenports     0x10              contiki-rm090.a(uip6.o)
uip_stat            0x3e              contiki-rm090.a(uip6.o)
events              0x4               contiki-rm090.a(param-repo.o)
stats               0x2c              contiki-rm090.a(csma.o)
sensors_flags       0x2               contiki-rm090.a(contiki-rm090-p)
serial_line_event_message
                    0x1               contiki-rm090.a(serial-line.o)
sensors_event       0x1               contiki-rm090.a(sensors.o)
cc2520_last_correlation
                    0x1               contiki-rm090.a(cc2520.o)
rpl_stats           0x14              contiki-rm090.a(rpl.o)
uip_slen            0x2               contiki-rm090.a(uip6.o)
uip_udp_conns       0x138             contiki-rm090.a(uip6.o)

Discarded input sections

 .data          0x0000000000000000        0x0 /opt/msp430-47-expr/bin/../lib/gcc/msp430/4.7.0/mcpu-430x/mmpy-16/msr20/mc20/crt0ivtbl64.o
 .bss           0x0000000000000000        0x0 /opt/msp430-47-expr/bin/../lib/gcc/msp430/4.7.0/mcpu-430x/mmpy-16/msr20/mc20/crt0ivtbl64.o
 .text.crt0     0x0000000000000000        0x0 /opt/msp430-47-expr/bin/../lib/gcc/msp430/4.7.0/mcpu-430x/mmpy-16/msr20/mc20/crt0ivtbl64.o
 .text          0x0000000000000000        0x0 udp-server.co
 .data          0x0000000000000000        0x0 udp-server.co
 .bss           0x0000000000000000        0x0 udp-server.co
 .text          0x0000000000000000        0x0 obj_rm090/contiki-rm090-main.o
 .data          0x0000000000000000        0x0 obj_rm090/contiki-rm090-main.o
 .bss           0x0000000000000000        0x0 obj_rm090/contiki-rm090-main.o
 .far.text.uip_log
                0x0000000000000000        0x6 obj_rm090/contiki-rm090-main.o
 .text          0x0000000000000000        0x0 contiki-rm090.a(param-repo.o)
 .data          0x0000000000000000        0x0 contiki-rm090.a(param-repo.o)
 .bss           0x0000000000000000        0x0 contiki-rm090.a(param-repo.o)
 .text          0x0000000000000000        0x0 contiki-rm090.a(serial-control-)
 .data          0x0000000000000000        0x0 contiki-rm090.a(serial-control-)
 .bss           0x0000000000000000        0x0 contiki-rm090.a(serial-control-)
 .far.text.process_thread_monitor_bounce_process
                0x0000000000000000       0xd8 contiki-rm090.a(serial-control-)
 .data.monitor_bounce_process
                0x0000000000000000        0xc contiki-rm090.a(serial-control-)
 .bss.collect_buffer_ptr
                0x0000000000000000        0x2 contiki-rm090.a(serial-control-)
 .bss.collect_timer
                0x0000000000000000        0xc contiki-rm090.a(serial-control-)
 .text          0x0000000000000000        0x0 contiki-rm090.a(contiki-rm090-p)
 .data          0x0000000000000000        0x0 contiki-rm090.a(contiki-rm090-p)
 .bss           0x0000000000000000        0x0 contiki-rm090.a(contiki-rm090-p)
 .text          0x0000000000000000        0x0 contiki-rm090.a(uart1.o)
 .data          0x0000000000000000        0x0 contiki-rm090.a(uart1.o)
 .bss           0x0000000000000000        0x0 contiki-rm090.a(uart1.o)
 .text          0x0000000000000000        0x0 contiki-rm090.a(uart1-putchar.o)
 .data          0x0000000000000000        0x0 contiki-rm090.a(uart1-putchar.o)
 .bss           0x0000000000000000        0x0 contiki-rm090.a(uart1-putchar.o)
 .text          0x0000000000000000        0x0 contiki-rm090.a(sensors.o)
 .data          0x0000000000000000        0x0 contiki-rm090.a(sensors.o)
 .bss           0x0000000000000000        0x0 contiki-rm090.a(sensors.o)
 .far.text.sensors_first
                0x0000000000000000        0x6 contiki-rm090.a(sensors.o)
 .far.text.sensors_next
                0x0000000000000000       0x24 contiki-rm090.a(sensors.o)
 .far.text.sensors_changed
                0x0000000000000000       0x2a contiki-rm090.a(sensors.o)
 .far.text.sensors_find
                0x0000000000000000       0x40 contiki-rm090.a(sensors.o)
 .text          0x0000000000000000        0x0 contiki-rm090.a(button-sensor.o)
 .data          0x0000000000000000        0x0 contiki-rm090.a(button-sensor.o)
 .bss           0x0000000000000000        0x0 contiki-rm090.a(button-sensor.o)
 .text          0x0000000000000000        0x0 contiki-rm090.a(radio-sensor.o)
 .data          0x0000000000000000        0x0 contiki-rm090.a(radio-sensor.o)
 .bss           0x0000000000000000        0x0 contiki-rm090.a(radio-sensor.o)
 .text          0x0000000000000000        0x0 contiki-rm090.a(cc2520.o)
 .data          0x0000000000000000        0x0 contiki-rm090.a(cc2520.o)
 .bss           0x0000000000000000        0x0 contiki-rm090.a(cc2520.o)
 .far.text.cc2520_get_channel
                0x0000000000000000        0x6 contiki-rm090.a(cc2520.o)
 .far.text.cc2520_set_txpower
                0x0000000000000000       0x14 contiki-rm090.a(cc2520.o)
 .far.text.cc2520_rssi
                0x0000000000000000       0x64 contiki-rm090.a(cc2520.o)
 .far.text.cc2520_cca_valid
                0x0000000000000000       0x26 contiki-rm090.a(cc2520.o)
 .far.text.cc2520_set_cca_threshold
                0x0000000000000000       0x14 contiki-rm090.a(cc2520.o)
 .text          0x0000000000000000        0x0 contiki-rm090.a(cc2520-arch.o)
 .data          0x0000000000000000        0x0 contiki-rm090.a(cc2520-arch.o)
 .bss           0x0000000000000000        0x0 contiki-rm090.a(cc2520-arch.o)
 .text          0x0000000000000000        0x0 contiki-rm090.a(msp430.o)
 .data          0x0000000000000000        0x0 contiki-rm090.a(msp430.o)
 .bss           0x0000000000000000        0x0 contiki-rm090.a(msp430.o)
 .far.text.msp430_add_lpm_req
                0x0000000000000000        0xc contiki-rm090.a(msp430.o)
 .far.text.msp430_remove_lpm_req
                0x0000000000000000        0xc contiki-rm090.a(msp430.o)
 .far.text.sbrk
                0x0000000000000000       0x1e contiki-rm090.a(msp430.o)
 .text          0x0000000000000000        0x0 contiki-rm090.a(clock.o)
 .data          0x0000000000000000        0x0 contiki-rm090.a(clock.o)
 .bss           0x0000000000000000        0x0 contiki-rm090.a(clock.o)
 .far.text.clock_set
                0x0000000000000000       0x16 contiki-rm090.a(clock.o)
 .far.text.clock_fine_max
                0x0000000000000000        0x6 contiki-rm090.a(clock.o)
 .far.text.clock_fine
                0x0000000000000000        0xc contiki-rm090.a(clock.o)
 .far.text.clock_set_seconds
                0x0000000000000000       0x18 contiki-rm090.a(clock.o)
 .far.text.clock_counter
                0x0000000000000000        0xe contiki-rm090.a(clock.o)
 .text          0x0000000000000000        0x0 contiki-rm090.a(leds.o)
 .data          0x0000000000000000        0x0 contiki-rm090.a(leds.o)
 .bss           0x0000000000000000        0x0 contiki-rm090.a(leds.o)
 .far.text.leds_get
                0x0000000000000000        0x6 contiki-rm090.a(leds.o)
 .far.text.leds_set
                0x0000000000000000        0xa contiki-rm090.a(leds.o)
 .far.text.leds_on
                0x0000000000000000        0xe contiki-rm090.a(leds.o)
 .far.text.leds_off
                0x0000000000000000       0x12 contiki-rm090.a(leds.o)
 .far.text.leds_blink
                0x0000000000000000       0x20 contiki-rm090.a(leds.o)
 .text          0x0000000000000000        0x0 contiki-rm090.a(leds-arch.o)
 .data          0x0000000000000000        0x0 contiki-rm090.a(leds-arch.o)
 .bss           0x0000000000000000        0x0 contiki-rm090.a(leds-arch.o)
 .far.text.leds_arch_get
                0x0000000000000000       0x2c contiki-rm090.a(leds-arch.o)
 .text          0x0000000000000000        0x0 contiki-rm090.a(watchdog.o)
 .data          0x0000000000000000        0x0 contiki-rm090.a(watchdog.o)
 .bss           0x0000000000000000        0x0 contiki-rm090.a(watchdog.o)
 .far.text.watchdog_reboot
                0x0000000000000000        0x6 contiki-rm090.a(watchdog.o)
 .text          0x0000000000000000        0x0 contiki-rm090.a(rtimer-arch.o)
 .data          0x0000000000000000        0x0 contiki-rm090.a(rtimer-arch.o)
 .bss           0x0000000000000000        0x0 contiki-rm090.a(rtimer-arch.o)
 .text          0x0000000000000000        0x0 contiki-rm090.a(ctimer.o)
 .data          0x0000000000000000        0x0 contiki-rm090.a(ctimer.o)
 .bss           0x0000000000000000        0x0 contiki-rm090.a(ctimer.o)
 .far.text.ctimer_expired
                0x0000000000000000       0x30 contiki-rm090.a(ctimer.o)
 .text          0x0000000000000000        0x0 contiki-rm090.a(autostart.o)
 .data          0x0000000000000000        0x0 contiki-rm090.a(autostart.o)
 .bss           0x0000000000000000        0x0 contiki-rm090.a(autostart.o)
 .far.text.autostart_exit
                0x0000000000000000       0x14 contiki-rm090.a(autostart.o)
 .text          0x0000000000000000        0x0 contiki-rm090.a(energest.o)
 .data          0x0000000000000000        0x0 contiki-rm090.a(energest.o)
 .bss           0x0000000000000000        0x0 contiki-rm090.a(energest.o)
 .text          0x0000000000000000        0x0 contiki-rm090.a(etimer.o)
 .data          0x0000000000000000        0x0 contiki-rm090.a(etimer.o)
 .bss           0x0000000000000000        0x0 contiki-rm090.a(etimer.o)
 .far.text.etimer_reset_with_new_interval
                0x0000000000000000       0x1e contiki-rm090.a(etimer.o)
 .far.text.etimer_adjust
                0x0000000000000000       0x1a contiki-rm090.a(etimer.o)
 .far.text.etimer_start_time
                0x0000000000000000        0x8 contiki-rm090.a(etimer.o)
 .text          0x0000000000000000        0x0 contiki-rm090.a(process.o)
 .data          0x0000000000000000        0x0 contiki-rm090.a(process.o)
 .bss           0x0000000000000000        0x0 contiki-rm090.a(process.o)
 .far.text.process_exit
                0x0000000000000000        0xa contiki-rm090.a(process.o)
 .far.text.process_is_running
                0x0000000000000000        0xe contiki-rm090.a(process.o)
 .text          0x0000000000000000        0x0 contiki-rm090.a(rtimer.o)
 .data          0x0000000000000000        0x0 contiki-rm090.a(rtimer.o)
 .bss           0x0000000000000000        0x0 contiki-rm090.a(rtimer.o)
 .far.text.rtimer_set
                0x0000000000000000       0x24 contiki-rm090.a(rtimer.o)
 .text          0x0000000000000000        0x0 contiki-rm090.a(timer.o)
 .data          0x0000000000000000        0x0 contiki-rm090.a(timer.o)
 .bss           0x0000000000000000        0x0 contiki-rm090.a(timer.o)
 .far.text.timer_remaining
                0x0000000000000000       0x24 contiki-rm090.a(timer.o)
 .text          0x0000000000000000        0x0 contiki-rm090.a(serial-line.o)
 .data          0x0000000000000000        0x0 contiki-rm090.a(serial-line.o)
 .bss           0x0000000000000000        0x0 contiki-rm090.a(serial-line.o)
 .text          0x0000000000000000        0x0 contiki-rm090.a(list.o)
 .data          0x0000000000000000        0x0 contiki-rm090.a(list.o)
 .bss           0x0000000000000000        0x0 contiki-rm090.a(list.o)
 .far.text.list_copy
                0x0000000000000000        0x6 contiki-rm090.a(list.o)
 .far.text.list_chop
                0x0000000000000000       0x1a contiki-rm090.a(list.o)
 .far.text.list_pop
                0x0000000000000000        0xe contiki-rm090.a(list.o)
 .far.text.list_insert
                0x0000000000000000       0x16 contiki-rm090.a(list.o)
 .text          0x0000000000000000        0x0 contiki-rm090.a(ringbuf.o)
 .data          0x0000000000000000        0x0 contiki-rm090.a(ringbuf.o)
 .bss           0x0000000000000000        0x0 contiki-rm090.a(ringbuf.o)
 .far.text.ringbuf_size
                0x0000000000000000        0x8 contiki-rm090.a(ringbuf.o)
 .far.text.ringbuf_elements
                0x0000000000000000       0x12 contiki-rm090.a(ringbuf.o)
 .text          0x0000000000000000        0x0 contiki-rm090.a(uip-ds6.o)
 .data          0x0000000000000000        0x0 contiki-rm090.a(uip-ds6.o)
 .bss           0x0000000000000000        0x0 contiki-rm090.a(uip-ds6.o)
 .far.text.uip_ds6_prefix_rm
                0x0000000000000000        0xa contiki-rm090.a(uip-ds6.o)
 .far.text.uip_ds6_prefix_lookup
                0x0000000000000000       0x28 contiki-rm090.a(uip-ds6.o)
 .far.text.uip_ds6_get_global
                0x0000000000000000       0x3e contiki-rm090.a(uip-ds6.o)
 .far.text.uip_ds6_aaddr_add
                0x0000000000000000       0x46 contiki-rm090.a(uip-ds6.o)
 .far.text.uip_ds6_aaddr_rm
                0x0000000000000000        0xa contiki-rm090.a(uip-ds6.o)
 .far.text.uip_ds6_aaddr_lookup
                0x0000000000000000       0x28 contiki-rm090.a(uip-ds6.o)
 .bss.locaaddr  0x0000000000000000        0x2 contiki-rm090.a(uip-ds6.o)
 .text          0x0000000000000000        0x0 contiki-rm090.a(uip-ds6-route.o)
 .data          0x0000000000000000        0x0 contiki-rm090.a(uip-ds6-route.o)
 .bss           0x0000000000000000        0x0 contiki-rm090.a(uip-ds6-route.o)
 .far.text.uip_ds6_notification_add
                0x0000000000000000       0x18 contiki-rm090.a(uip-ds6-route.o)
 .far.text.uip_ds6_notification_rm
                0x0000000000000000        0xc contiki-rm090.a(uip-ds6-route.o)
 .far.text.uip_ds6_route_num_routes
                0x0000000000000000        0x6 contiki-rm090.a(uip-ds6-route.o)
 .far.text.uip_ds6_route_rm_by_nexthop
                0x0000000000000000       0x14 contiki-rm090.a(uip-ds6-route.o)
 .text          0x0000000000000000        0x0 contiki-rm090.a(uip6.o)
 .data          0x0000000000000000        0x0 contiki-rm090.a(uip6.o)
 .bss           0x0000000000000000        0x0 contiki-rm090.a(uip6.o)
 .far.text.uip_chksum
                0x0000000000000000       0x18 contiki-rm090.a(uip6.o)
 .far.text.uip_connect
                0x0000000000000000      0x108 contiki-rm090.a(uip6.o)
 .far.text.uip_listen
                0x0000000000000000       0x1a contiki-rm090.a(uip6.o)
 .far.text.uip_htons
                0x0000000000000000        0xc contiki-rm090.a(uip6.o)
 .far.text.uip_send
                0x0000000000000000       0x48 contiki-rm090.a(uip6.o)
 .text          0x0000000000000000        0x0 contiki-rm090.a(uip-ds6-nbr.o)
 .data          0x0000000000000000        0x0 contiki-rm090.a(uip-ds6-nbr.o)
 .bss           0x0000000000000000        0x0 contiki-rm090.a(uip-ds6-nbr.o)
 .far.text.uip_ds6_nbr_get_ipaddr
                0x0000000000000000        0x2 contiki-rm090.a(uip-ds6-nbr.o)
 .far.text.uip_ds6_nbr_num
                0x0000000000000000       0x24 contiki-rm090.a(uip-ds6-nbr.o)
 .text          0x0000000000000000        0x0 contiki-rm090.a(uip-nd6.o)
 .data          0x0000000000000000        0x0 contiki-rm090.a(uip-nd6.o)
 .bss           0x0000000000000000        0x0 contiki-rm090.a(uip-nd6.o)
 .far.text.uip_nd6_ns_output
                0x0000000000000000      0x17e contiki-rm090.a(uip-nd6.o)
 .text          0x0000000000000000        0x0 contiki-rm090.a(sicslowpan.o)
 .data          0x0000000000000000        0x0 contiki-rm090.a(sicslowpan.o)
 .bss           0x0000000000000000        0x0 contiki-rm090.a(sicslowpan.o)
 .far.text.rime_sniffer_add
                0x0000000000000000        0x6 contiki-rm090.a(sicslowpan.o)
 .far.text.rime_sniffer_remove
                0x0000000000000000        0x6 contiki-rm090.a(sicslowpan.o)
 .far.text.sicslowpan_get_last_rssi
                0x0000000000000000        0x6 contiki-rm090.a(sicslowpan.o)
 .text          0x0000000000000000        0x0 contiki-rm090.a(tcpip.o)
 .data          0x0000000000000000        0x0 contiki-rm090.a(tcpip.o)
 .bss           0x0000000000000000        0x0 contiki-rm090.a(tcpip.o)
 .far.text.tcp_unlisten
                0x0000000000000000       0x26 contiki-rm090.a(tcpip.o)
 .far.text.tcp_listen
                0x0000000000000000       0x24 contiki-rm090.a(tcpip.o)
 .far.text.tcp_attach
                0x0000000000000000        0xc contiki-rm090.a(tcpip.o)
 .far.text.udp_attach
                0x0000000000000000        0xc contiki-rm090.a(tcpip.o)
 .far.text.udp_broadcast_new
                0x0000000000000000       0x46 contiki-rm090.a(tcpip.o)
 .far.text.tcpip_poll_udp
                0x0000000000000000        0xe contiki-rm090.a(tcpip.o)
 .far.text.tcpip_poll_tcp
                0x0000000000000000        0xe contiki-rm090.a(tcpip.o)
 .far.text.tcp_connect
                0x0000000000000000       0x22 contiki-rm090.a(tcpip.o)
 .text          0x0000000000000000        0x0 contiki-rm090.a(uip-debug.o)
 .data          0x0000000000000000        0x0 contiki-rm090.a(uip-debug.o)
 .bss           0x0000000000000000        0x0 contiki-rm090.a(uip-debug.o)
 .text          0x0000000000000000        0x0 contiki-rm090.a(rpl-control.o)
 .data          0x0000000000000000        0x0 contiki-rm090.a(rpl-control.o)
 .bss           0x0000000000000000        0x0 contiki-rm090.a(rpl-control.o)
 .text          0x0000000000000000        0x0 contiki-rm090.a(rpl-ext-header.)
 .data          0x0000000000000000        0x0 contiki-rm090.a(rpl-ext-header.)
 .bss           0x0000000000000000        0x0 contiki-rm090.a(rpl-ext-header.)
 .text          0x0000000000000000        0x0 contiki-rm090.a(rpl.o)
 .data          0x0000000000000000        0x0 contiki-rm090.a(rpl.o)
 .bss           0x0000000000000000        0x0 contiki-rm090.a(rpl.o)
 .far.text.rpl_set_mode
                0x0000000000000000       0x52 contiki-rm090.a(rpl.o)
 .text          0x0000000000000000        0x0 contiki-rm090.a(rpl-dag.o)
 .data          0x0000000000000000        0x0 contiki-rm090.a(rpl-dag.o)
 .bss           0x0000000000000000        0x0 contiki-rm090.a(rpl-dag.o)
 .far.text.rpl_get_parent_rank
                0x0000000000000000       0x18 contiki-rm090.a(rpl-dag.o)
 .far.text.rpl_get_parent_link_metric
                0x0000000000000000       0x2a contiki-rm090.a(rpl-dag.o)
 .far.text.rpl_get_nbr
                0x0000000000000000       0x18 contiki-rm090.a(rpl-dag.o)
 .rodata.rpl_print_neighbor_list
                0x0000000000000000       0x84 contiki-rm090.a(rpl-dag.o)
 .far.text.rpl_print_neighbor_list
                0x0000000000000000      0x10e contiki-rm090.a(rpl-dag.o)
 .far.text.rpl_set_default_instance
                0x0000000000000000        0x6 contiki-rm090.a(rpl-dag.o)
 .far.text.rpl_get_default_instance
                0x0000000000000000        0x6 contiki-rm090.a(rpl-dag.o)
 .far.text.rpl_free_instance
                0x0000000000000000       0x68 contiki-rm090.a(rpl-dag.o)
 .far.text.rpl_has_downward_route
                0x0000000000000000       0x12 contiki-rm090.a(rpl-dag.o)
 .far.text.rpl_get_dag
                0x0000000000000000       0x5c contiki-rm090.a(rpl-dag.o)
 .text          0x0000000000000000        0x0 contiki-rm090.a(queuebuf.o)
 .data          0x0000000000000000        0x0 contiki-rm090.a(queuebuf.o)
 .bss           0x0000000000000000        0x0 contiki-rm090.a(queuebuf.o)
 .far.text.queuebuf_update_from_packetbuf
                0x0000000000000000       0x22 contiki-rm090.a(queuebuf.o)
 .far.text.queuebuf_dataptr
                0x0000000000000000       0x1c contiki-rm090.a(queuebuf.o)
 .far.text.queuebuf_datalen
                0x0000000000000000        0x8 contiki-rm090.a(queuebuf.o)
 .far.text.queuebuf_addr
                0x0000000000000000        0xe contiki-rm090.a(queuebuf.o)
 .far.text.queuebuf_debug_print
                0x0000000000000000        0x2 contiki-rm090.a(queuebuf.o)
 .text          0x0000000000000000        0x0 contiki-rm090.a(nbr-table.o)
 .data          0x0000000000000000        0x0 contiki-rm090.a(nbr-table.o)
 .bss           0x0000000000000000        0x0 contiki-rm090.a(nbr-table.o)
 .far.text.nbr_table_update_lladdr
                0x0000000000000000       0x48 contiki-rm090.a(nbr-table.o)
 .text          0x0000000000000000        0x0 contiki-rm090.a(packetbuf.o)
 .data          0x0000000000000000        0x0 contiki-rm090.a(packetbuf.o)
 .bss           0x0000000000000000        0x0 contiki-rm090.a(packetbuf.o)
 .far.text.packetbuf_compact
                0x0000000000000000       0x3c contiki-rm090.a(packetbuf.o)
 .text          0x0000000000000000        0x0 contiki-rm090.a(linkaddr.o)
 .data          0x0000000000000000        0x0 contiki-rm090.a(linkaddr.o)
 .bss           0x0000000000000000        0x0 contiki-rm090.a(linkaddr.o)
 .text          0x0000000000000000        0x0 contiki-rm090.a(link-stats.o)
 .data          0x0000000000000000        0x0 contiki-rm090.a(link-stats.o)
 .bss           0x0000000000000000        0x0 contiki-rm090.a(link-stats.o)
 .far.text.guess_etx_from_rssi
                0x0000000000000000       0x42 contiki-rm090.a(link-stats.o)
 .text          0x0000000000000000        0x0 contiki-rm090.a(framer-802154.o)
 .data          0x0000000000000000        0x0 contiki-rm090.a(framer-802154.o)
 .bss           0x0000000000000000        0x0 contiki-rm090.a(framer-802154.o)
 .text          0x0000000000000000        0x0 contiki-rm090.a(csma.o)
 .data          0x0000000000000000        0x0 contiki-rm090.a(csma.o)
 .bss           0x0000000000000000        0x0 contiki-rm090.a(csma.o)
 .far.text.init_csma_ctrl
                0x0000000000000000        0x2 contiki-rm090.a(csma.o)
 .text          0x0000000000000000        0x0 contiki-rm090.a(frame802154.o)
 .data          0x0000000000000000        0x0 contiki-rm090.a(frame802154.o)
 .bss           0x0000000000000000        0x0 contiki-rm090.a(frame802154.o)
 .far.text.frame802154_set_pan_id
                0x0000000000000000        0x6 contiki-rm090.a(frame802154.o)
 .far.text.frame802154_check_dest_panid
                0x0000000000000000       0x36 contiki-rm090.a(frame802154.o)
 .far.text.frame802154_extract_linkaddr
                0x0000000000000000       0x8c contiki-rm090.a(frame802154.o)
 .text          0x0000000000000000        0x0 contiki-rm090.a(mac.o)
 .data          0x0000000000000000        0x0 contiki-rm090.a(mac.o)
 .bss           0x0000000000000000        0x0 contiki-rm090.a(mac.o)
 .text          0x0000000000000000        0x0 contiki-rm090.a(macstats.o)
 .data          0x0000000000000000        0x0 contiki-rm090.a(macstats.o)
 .bss           0x0000000000000000        0x0 contiki-rm090.a(macstats.o)
 .far.text.macstats_pauze_events
                0x0000000000000000        0x6 contiki-rm090.a(macstats.o)
 .far.text.macstats_continu_events
                0x0000000000000000        0x6 contiki-rm090.a(macstats.o)
 .text          0x0000000000000000        0x0 contiki-rm090.a(nullrdc.o)
 .data          0x0000000000000000        0x0 contiki-rm090.a(nullrdc.o)
 .bss           0x0000000000000000        0x0 contiki-rm090.a(nullrdc.o)
 .text          0x0000000000000000        0x0 contiki-rm090.a(nullsec.o)
 .data          0x0000000000000000        0x0 contiki-rm090.a(nullsec.o)
 .bss           0x0000000000000000        0x0 contiki-rm090.a(nullsec.o)
 .text          0x0000000000000000        0x0 contiki-rm090.a(base64.o)
 .data          0x0000000000000000        0x0 contiki-rm090.a(base64.o)
 .bss           0x0000000000000000        0x0 contiki-rm090.a(base64.o)
 .text          0x0000000000000000        0x0 contiki-rm090.a(spi.o)
 .data          0x0000000000000000        0x0 contiki-rm090.a(spi.o)
 .bss           0x0000000000000000        0x0 contiki-rm090.a(spi.o)
 .bss.spi_busy  0x0000000000000000        0x1 contiki-rm090.a(spi.o)
 .text          0x0000000000000000        0x0 contiki-rm090.a(stimer.o)
 .data          0x0000000000000000        0x0 contiki-rm090.a(stimer.o)
 .bss           0x0000000000000000        0x0 contiki-rm090.a(stimer.o)
 .far.text.stimer_reset
                0x0000000000000000        0xe contiki-rm090.a(stimer.o)
 .far.text.stimer_restart
                0x0000000000000000       0x14 contiki-rm090.a(stimer.o)
 .far.text.stimer_remaining
                0x0000000000000000       0x24 contiki-rm090.a(stimer.o)
 .far.text.stimer_elapsed
                0x0000000000000000       0x12 contiki-rm090.a(stimer.o)
 .text          0x0000000000000000        0x0 contiki-rm090.a(memb.o)
 .data          0x0000000000000000        0x0 contiki-rm090.a(memb.o)
 .bss           0x0000000000000000        0x0 contiki-rm090.a(memb.o)
 .text          0x0000000000000000        0x0 contiki-rm090.a(random.o)
 .data          0x0000000000000000        0x0 contiki-rm090.a(random.o)
 .bss           0x0000000000000000        0x0 contiki-rm090.a(random.o)
 .far.text.random_init
                0x0000000000000000        0x6 contiki-rm090.a(random.o)
 .text          0x0000000000000000        0x0 contiki-rm090.a(uip-icmp6.o)
 .data          0x0000000000000000        0x0 contiki-rm090.a(uip-icmp6.o)
 .bss           0x0000000000000000        0x0 contiki-rm090.a(uip-icmp6.o)
 .far.text.uip_icmp6_echo_reply_callback_add
                0x0000000000000000       0x18 contiki-rm090.a(uip-icmp6.o)
 .far.text.uip_icmp6_echo_reply_callback_rm
                0x0000000000000000        0xc contiki-rm090.a(uip-icmp6.o)
 .text          0x0000000000000000        0x0 contiki-rm090.a(rpl-icmp6.o)
 .data          0x0000000000000000        0x0 contiki-rm090.a(rpl-icmp6.o)
 .bss           0x0000000000000000        0x0 contiki-rm090.a(rpl-icmp6.o)
 .far.text.dao_ack_output
                0x0000000000000000        0x2 contiki-rm090.a(rpl-icmp6.o)
 .text          0x0000000000000000        0x0 contiki-rm090.a(rpl-of0.o)
 .data          0x0000000000000000        0x0 contiki-rm090.a(rpl-of0.o)
 .bss           0x0000000000000000        0x0 contiki-rm090.a(rpl-of0.o)
 .text          0x0000000000000000        0x0 contiki-rm090.a(rpl-timers.o)
 .data          0x0000000000000000        0x0 contiki-rm090.a(rpl-timers.o)
 .bss           0x0000000000000000        0x0 contiki-rm090.a(rpl-timers.o)
 .far.text.rpl_schedule_dao_immediately
                0x0000000000000000        0xa contiki-rm090.a(rpl-timers.o)
 .far.text.rpl_cancel_dao
                0x0000000000000000       0x1a contiki-rm090.a(rpl-timers.o)
 .text          0x0000000000000000        0x0 contiki-rm090.a(rpl-nbr-policy.)
 .data          0x0000000000000000        0x0 contiki-rm090.a(rpl-nbr-policy.)
 .bss           0x0000000000000000        0x0 contiki-rm090.a(rpl-nbr-policy.)
 .text          0x0000000000000000        0x0 contiki-rm090.a(rpl-mrhof.o)
 .data          0x0000000000000000        0x0 contiki-rm090.a(rpl-mrhof.o)
 .bss           0x0000000000000000        0x0 contiki-rm090.a(rpl-mrhof.o)
 .text          0x0000000000000000        0x0 contiki-rm090.a(mac-sequence.o)
 .data          0x0000000000000000        0x0 contiki-rm090.a(mac-sequence.o)
 .bss           0x0000000000000000        0x0 contiki-rm090.a(mac-sequence.o)
 .text          0x0000000000000000        0x0 /opt/msp430-47-expr/bin/../lib/gcc/msp430/4.7.0/mcpu-430x/mmpy-16/msr20/mc20/libgcc.a(_udivmod16.o)
 .data          0x0000000000000000        0x0 /opt/msp430-47-expr/bin/../lib/gcc/msp430/4.7.0/mcpu-430x/mmpy-16/msr20/mc20/libgcc.a(_udivmod16.o)
 .bss           0x0000000000000000        0x0 /opt/msp430-47-expr/bin/../lib/gcc/msp430/4.7.0/mcpu-430x/mmpy-16/msr20/mc20/libgcc.a(_udivmod16.o)
 .text          0x0000000000000000        0x0 /opt/msp430-47-expr/bin/../lib/gcc/msp430/4.7.0/mcpu-430x/mmpy-16/msr20/mc20/libgcc.a(_divmod16.o)
 .data          0x0000000000000000        0x0 /opt/msp430-47-expr/bin/../lib/gcc/msp430/4.7.0/mcpu-430x/mmpy-16/msr20/mc20/libgcc.a(_divmod16.o)
 .bss           0x0000000000000000        0x0 /opt/msp430-47-expr/bin/../lib/gcc/msp430/4.7.0/mcpu-430x/mmpy-16/msr20/mc20/libgcc.a(_divmod16.o)
 .text          0x0000000000000000        0x0 /opt/msp430-47-expr/bin/../lib/gcc/msp430/4.7.0/mcpu-430x/mmpy-16/msr20/mc20/libgcc.a(_udivmod32.o)
 .data          0x0000000000000000        0x0 /opt/msp430-47-expr/bin/../lib/gcc/msp430/4.7.0/mcpu-430x/mmpy-16/msr20/mc20/libgcc.a(_udivmod32.o)
 .bss           0x0000000000000000        0x0 /opt/msp430-47-expr/bin/../lib/gcc/msp430/4.7.0/mcpu-430x/mmpy-16/msr20/mc20/libgcc.a(_udivmod32.o)
 .text          0x0000000000000000        0x0 /opt/msp430-47-expr/bin/../lib/gcc/msp430/4.7.0/mcpu-430x/mmpy-16/msr20/mc20/libgcc.a(_divmod32.o)
 .data          0x0000000000000000        0x0 /opt/msp430-47-expr/bin/../lib/gcc/msp430/4.7.0/mcpu-430x/mmpy-16/msr20/mc20/libgcc.a(_divmod32.o)
 .bss           0x0000000000000000        0x0 /opt/msp430-47-expr/bin/../lib/gcc/msp430/4.7.0/mcpu-430x/mmpy-16/msr20/mc20/libgcc.a(_divmod32.o)
 .text          0x0000000000000000        0x0 /opt/msp430-47-expr/bin/../lib/gcc/msp430/4.7.0/../../../../msp430/lib/mcpu-430x/mmpy-16/msr20/mc20/libc.a(atol.o)
 .data          0x0000000000000000        0x0 /opt/msp430-47-expr/bin/../lib/gcc/msp430/4.7.0/../../../../msp430/lib/mcpu-430x/mmpy-16/msr20/mc20/libc.a(atol.o)
 .bss           0x0000000000000000        0x0 /opt/msp430-47-expr/bin/../lib/gcc/msp430/4.7.0/../../../../msp430/lib/mcpu-430x/mmpy-16/msr20/mc20/libc.a(atol.o)
 .text          0x0000000000000000        0x0 /opt/msp430-47-expr/bin/../lib/gcc/msp430/4.7.0/../../../../msp430/lib/mcpu-430x/mmpy-16/msr20/mc20/libc.a(atoi.o)
 .data          0x0000000000000000        0x0 /opt/msp430-47-expr/bin/../lib/gcc/msp430/4.7.0/../../../../msp430/lib/mcpu-430x/mmpy-16/msr20/mc20/libc.a(atoi.o)
 .bss           0x0000000000000000        0x0 /opt/msp430-47-expr/bin/../lib/gcc/msp430/4.7.0/../../../../msp430/lib/mcpu-430x/mmpy-16/msr20/mc20/libc.a(atoi.o)
 .text          0x0000000000000000        0x0 /opt/msp430-47-expr/bin/../lib/gcc/msp430/4.7.0/../../../../msp430/lib/mcpu-430x/mmpy-16/msr20/mc20/libc.a(strtol.o)
 .data          0x0000000000000000        0x0 /opt/msp430-47-expr/bin/../lib/gcc/msp430/4.7.0/../../../../msp430/lib/mcpu-430x/mmpy-16/msr20/mc20/libc.a(strtol.o)
 .bss           0x0000000000000000        0x0 /opt/msp430-47-expr/bin/../lib/gcc/msp430/4.7.0/../../../../msp430/lib/mcpu-430x/mmpy-16/msr20/mc20/libc.a(strtol.o)
 .text          0x0000000000000000        0x0 /opt/msp430-47-expr/bin/../lib/gcc/msp430/4.7.0/../../../../msp430/lib/mcpu-430x/mmpy-16/msr20/mc20/libc.a(printf.o)
 .data          0x0000000000000000        0x0 /opt/msp430-47-expr/bin/../lib/gcc/msp430/4.7.0/../../../../msp430/lib/mcpu-430x/mmpy-16/msr20/mc20/libc.a(printf.o)
 .bss           0x0000000000000000        0x0 /opt/msp430-47-expr/bin/../lib/gcc/msp430/4.7.0/../../../../msp430/lib/mcpu-430x/mmpy-16/msr20/mc20/libc.a(printf.o)
 .any.text.vprintf
                0x0000000000000000        0xe /opt/msp430-47-expr/bin/../lib/gcc/msp430/4.7.0/../../../../msp430/lib/mcpu-430x/mmpy-16/msr20/mc20/libc.a(printf.o)
 .text          0x0000000000000000        0x0 /opt/msp430-47-expr/bin/../lib/gcc/msp430/4.7.0/../../../../msp430/lib/mcpu-430x/mmpy-16/msr20/mc20/libc.a(vuprintf.o)
 .data          0x0000000000000000        0x0 /opt/msp430-47-expr/bin/../lib/gcc/msp430/4.7.0/../../../../msp430/lib/mcpu-430x/mmpy-16/msr20/mc20/libc.a(vuprintf.o)
 .bss           0x0000000000000000        0x0 /opt/msp430-47-expr/bin/../lib/gcc/msp430/4.7.0/../../../../msp430/lib/mcpu-430x/mmpy-16/msr20/mc20/libc.a(vuprintf.o)
 .text          0x0000000000000000        0x0 /opt/msp430-47-expr/bin/../lib/gcc/msp430/4.7.0/../../../../msp430/lib/mcpu-430x/mmpy-16/msr20/mc20/libc.a(puts.o)
 .data          0x0000000000000000        0x0 /opt/msp430-47-expr/bin/../lib/gcc/msp430/4.7.0/../../../../msp430/lib/mcpu-430x/mmpy-16/msr20/mc20/libc.a(puts.o)
 .bss           0x0000000000000000        0x0 /opt/msp430-47-expr/bin/../lib/gcc/msp430/4.7.0/../../../../msp430/lib/mcpu-430x/mmpy-16/msr20/mc20/libc.a(puts.o)
 .text          0x0000000000000000        0x0 /opt/msp430-47-expr/bin/../lib/gcc/msp430/4.7.0/../../../../msp430/lib/mcpu-430x/mmpy-16/msr20/mc20/libc.a(rand.o)
 .data          0x0000000000000000        0x0 /opt/msp430-47-expr/bin/../lib/gcc/msp430/4.7.0/../../../../msp430/lib/mcpu-430x/mmpy-16/msr20/mc20/libc.a(rand.o)
 .bss           0x0000000000000000        0x0 /opt/msp430-47-expr/bin/../lib/gcc/msp430/4.7.0/../../../../msp430/lib/mcpu-430x/mmpy-16/msr20/mc20/libc.a(rand.o)
 .any.text.rand_r
                0x0000000000000000       0x24 /opt/msp430-47-expr/bin/../lib/gcc/msp430/4.7.0/../../../../msp430/lib/mcpu-430x/mmpy-16/msr20/mc20/libc.a(rand.o)
 .any.text.srand
                0x0000000000000000        0xa /opt/msp430-47-expr/bin/../lib/gcc/msp430/4.7.0/../../../../msp430/lib/mcpu-430x/mmpy-16/msr20/mc20/libc.a(rand.o)
 .text          0x0000000000000000        0x0 /opt/msp430-47-expr/bin/../lib/gcc/msp430/4.7.0/../../../../msp430/lib/mcpu-430x/mmpy-16/msr20/mc20/libc.a(strncmp.o)
 .data          0x0000000000000000        0x0 /opt/msp430-47-expr/bin/../lib/gcc/msp430/4.7.0/../../../../msp430/lib/mcpu-430x/mmpy-16/msr20/mc20/libc.a(strncmp.o)
 .bss           0x0000000000000000        0x0 /opt/msp430-47-expr/bin/../lib/gcc/msp430/4.7.0/../../../../msp430/lib/mcpu-430x/mmpy-16/msr20/mc20/libc.a(strncmp.o)
 .text          0x0000000000000000        0x0 /opt/msp430-47-expr/bin/../lib/gcc/msp430/4.7.0/../../../../msp430/lib/mcpu-430x/mmpy-16/msr20/mc20/libc.a(memcmp.o)
 .data          0x0000000000000000        0x0 /opt/msp430-47-expr/bin/../lib/gcc/msp430/4.7.0/../../../../msp430/lib/mcpu-430x/mmpy-16/msr20/mc20/libc.a(memcmp.o)
 .bss           0x0000000000000000        0x0 /opt/msp430-47-expr/bin/../lib/gcc/msp430/4.7.0/../../../../msp430/lib/mcpu-430x/mmpy-16/msr20/mc20/libc.a(memcmp.o)
 .text          0x0000000000000000        0x0 /opt/msp430-47-expr/bin/../lib/gcc/msp430/4.7.0/../../../../msp430/lib/mcpu-430x/mmpy-16/msr20/mc20/libc.a(memcpy.o)
 .data          0x0000000000000000        0x0 /opt/msp430-47-expr/bin/../lib/gcc/msp430/4.7.0/../../../../msp430/lib/mcpu-430x/mmpy-16/msr20/mc20/libc.a(memcpy.o)
 .bss           0x0000000000000000        0x0 /opt/msp430-47-expr/bin/../lib/gcc/msp430/4.7.0/../../../../msp430/lib/mcpu-430x/mmpy-16/msr20/mc20/libc.a(memcpy.o)
 .text          0x0000000000000000        0x0 /opt/msp430-47-expr/bin/../lib/gcc/msp430/4.7.0/../../../../msp430/lib/mcpu-430x/mmpy-16/msr20/mc20/libc.a(memmove.o)
 .data          0x0000000000000000        0x0 /opt/msp430-47-expr/bin/../lib/gcc/msp430/4.7.0/../../../../msp430/lib/mcpu-430x/mmpy-16/msr20/mc20/libc.a(memmove.o)
 .bss           0x0000000000000000        0x0 /opt/msp430-47-expr/bin/../lib/gcc/msp430/4.7.0/../../../../msp430/lib/mcpu-430x/mmpy-16/msr20/mc20/libc.a(memmove.o)
 .text          0x0000000000000000        0x0 /opt/msp430-47-expr/bin/../lib/gcc/msp430/4.7.0/../../../../msp430/lib/mcpu-430x/mmpy-16/msr20/mc20/libc.a(memset.o)
 .data          0x0000000000000000        0x0 /opt/msp430-47-expr/bin/../lib/gcc/msp430/4.7.0/../../../../msp430/lib/mcpu-430x/mmpy-16/msr20/mc20/libc.a(memset.o)
 .bss           0x0000000000000000        0x0 /opt/msp430-47-expr/bin/../lib/gcc/msp430/4.7.0/../../../../msp430/lib/mcpu-430x/mmpy-16/msr20/mc20/libc.a(memset.o)
 .text          0x0000000000000000        0x0 /opt/msp430-47-expr/bin/../lib/gcc/msp430/4.7.0/../../../../msp430/lib/mcpu-430x/mmpy-16/msr20/mc20/libc.a(ldiv.o)
 .data          0x0000000000000000        0x0 /opt/msp430-47-expr/bin/../lib/gcc/msp430/4.7.0/../../../../msp430/lib/mcpu-430x/mmpy-16/msr20/mc20/libc.a(ldiv.o)
 .bss           0x0000000000000000        0x0 /opt/msp430-47-expr/bin/../lib/gcc/msp430/4.7.0/../../../../msp430/lib/mcpu-430x/mmpy-16/msr20/mc20/libc.a(ldiv.o)
 .text          0x0000000000000000        0x0 /opt/msp430-47-expr/bin/../lib/gcc/msp430/4.7.0/../../../../msp430/lib/mcpu-430x/mmpy-16/msr20/mc20/libc.a(errno.o)
 .data          0x0000000000000000        0x0 /opt/msp430-47-expr/bin/../lib/gcc/msp430/4.7.0/../../../../msp430/lib/mcpu-430x/mmpy-16/msr20/mc20/libc.a(errno.o)
 .bss           0x0000000000000000        0x0 /opt/msp430-47-expr/bin/../lib/gcc/msp430/4.7.0/../../../../msp430/lib/mcpu-430x/mmpy-16/msr20/mc20/libc.a(errno.o)
 .text          0x0000000000000000        0x0 /opt/msp430-47-expr/bin/../lib/gcc/msp430/4.7.0/mcpu-430x/mmpy-16/msr20/mc20/libgcc.a(_mulsi3.o)
 .data          0x0000000000000000        0x0 /opt/msp430-47-expr/bin/../lib/gcc/msp430/4.7.0/mcpu-430x/mmpy-16/msr20/mc20/libgcc.a(_mulsi3.o)
 .bss           0x0000000000000000        0x0 /opt/msp430-47-expr/bin/../lib/gcc/msp430/4.7.0/mcpu-430x/mmpy-16/msr20/mc20/libgcc.a(_mulsi3.o)
 .text          0x0000000000000000        0x0 /opt/msp430-47-expr/bin/../lib/gcc/msp430/4.7.0/mcpu-430x/mmpy-16/msr20/mc20/libgcc.a(_udivmod64.o)
 .data          0x0000000000000000        0x0 /opt/msp430-47-expr/bin/../lib/gcc/msp430/4.7.0/mcpu-430x/mmpy-16/msr20/mc20/libgcc.a(_udivmod64.o)
 .bss           0x0000000000000000        0x0 /opt/msp430-47-expr/bin/../lib/gcc/msp430/4.7.0/mcpu-430x/mmpy-16/msr20/mc20/libgcc.a(_udivmod64.o)
 .text          0x0000000000000000        0x0 /opt/msp430-47-expr/bin/../lib/gcc/msp430/4.7.0/mcpu-430x/mmpy-16/msr20/mc20/libcrt0.a(_reset_vector__.o)
 .data          0x0000000000000000        0x0 /opt/msp430-47-expr/bin/../lib/gcc/msp430/4.7.0/mcpu-430x/mmpy-16/msr20/mc20/libcrt0.a(_reset_vector__.o)
 .bss           0x0000000000000000        0x0 /opt/msp430-47-expr/bin/../lib/gcc/msp430/4.7.0/mcpu-430x/mmpy-16/msr20/mc20/libcrt0.a(_reset_vector__.o)
 .text          0x0000000000000000        0x0 /opt/msp430-47-expr/bin/../lib/gcc/msp430/4.7.0/mcpu-430x/mmpy-16/msr20/mc20/libcrt0.a(__watchdog_support.o)
 .data          0x0000000000000000        0x0 /opt/msp430-47-expr/bin/../lib/gcc/msp430/4.7.0/mcpu-430x/mmpy-16/msr20/mc20/libcrt0.a(__watchdog_support.o)
 .bss           0x0000000000000000        0x0 /opt/msp430-47-expr/bin/../lib/gcc/msp430/4.7.0/mcpu-430x/mmpy-16/msr20/mc20/libcrt0.a(__watchdog_support.o)
 .text          0x0000000000000000        0x0 /opt/msp430-47-expr/bin/../lib/gcc/msp430/4.7.0/mcpu-430x/mmpy-16/msr20/mc20/libcrt0.a(__init_stack.o)
 .data          0x0000000000000000        0x0 /opt/msp430-47-expr/bin/../lib/gcc/msp430/4.7.0/mcpu-430x/mmpy-16/msr20/mc20/libcrt0.a(__init_stack.o)
 .bss           0x0000000000000000        0x0 /opt/msp430-47-expr/bin/../lib/gcc/msp430/4.7.0/mcpu-430x/mmpy-16/msr20/mc20/libcrt0.a(__init_stack.o)
 .text          0x0000000000000000        0x0 /opt/msp430-47-expr/bin/../lib/gcc/msp430/4.7.0/mcpu-430x/mmpy-16/msr20/mc20/libcrt0.a(__low_level_init.o)
 .data          0x0000000000000000        0x0 /opt/msp430-47-expr/bin/../lib/gcc/msp430/4.7.0/mcpu-430x/mmpy-16/msr20/mc20/libcrt0.a(__low_level_init.o)
 .bss           0x0000000000000000        0x0 /opt/msp430-47-expr/bin/../lib/gcc/msp430/4.7.0/mcpu-430x/mmpy-16/msr20/mc20/libcrt0.a(__low_level_init.o)
 .text          0x0000000000000000        0x0 /opt/msp430-47-expr/bin/../lib/gcc/msp430/4.7.0/mcpu-430x/mmpy-16/msr20/mc20/libcrt0.a(_copy_data.o)
 .data          0x0000000000000000        0x0 /opt/msp430-47-expr/bin/../lib/gcc/msp430/4.7.0/mcpu-430x/mmpy-16/msr20/mc20/libcrt0.a(_copy_data.o)
 .bss           0x0000000000000000        0x0 /opt/msp430-47-expr/bin/../lib/gcc/msp430/4.7.0/mcpu-430x/mmpy-16/msr20/mc20/libcrt0.a(_copy_data.o)
 .text          0x0000000000000000        0x0 /opt/msp430-47-expr/bin/../lib/gcc/msp430/4.7.0/mcpu-430x/mmpy-16/msr20/mc20/libcrt0.a(_clear_bss.o)
 .data          0x0000000000000000        0x0 /opt/msp430-47-expr/bin/../lib/gcc/msp430/4.7.0/mcpu-430x/mmpy-16/msr20/mc20/libcrt0.a(_clear_bss.o)
 .bss           0x0000000000000000        0x0 /opt/msp430-47-expr/bin/../lib/gcc/msp430/4.7.0/mcpu-430x/mmpy-16/msr20/mc20/libcrt0.a(_clear_bss.o)
 .text          0x0000000000000000        0x0 /opt/msp430-47-expr/bin/../lib/gcc/msp430/4.7.0/mcpu-430x/mmpy-16/msr20/mc20/libcrt0.a(__stop_progExec__.o)
 .data          0x0000000000000000        0x0 /opt/msp430-47-expr/bin/../lib/gcc/msp430/4.7.0/mcpu-430x/mmpy-16/msr20/mc20/libcrt0.a(__stop_progExec__.o)
 .bss           0x0000000000000000        0x0 /opt/msp430-47-expr/bin/../lib/gcc/msp430/4.7.0/mcpu-430x/mmpy-16/msr20/mc20/libcrt0.a(__stop_progExec__.o)
 .text          0x0000000000000000        0x0 /opt/msp430-47-expr/bin/../lib/gcc/msp430/4.7.0/mcpu-430x/mmpy-16/msr20/mc20/libcrt0.a(_endless_loop__.o)
 .data          0x0000000000000000        0x0 /opt/msp430-47-expr/bin/../lib/gcc/msp430/4.7.0/mcpu-430x/mmpy-16/msr20/mc20/libcrt0.a(_endless_loop__.o)
 .bss           0x0000000000000000        0x0 /opt/msp430-47-expr/bin/../lib/gcc/msp430/4.7.0/mcpu-430x/mmpy-16/msr20/mc20/libcrt0.a(_endless_loop__.o)
 .text          0x0000000000000000        0x0 /opt/msp430-47-expr/bin/../lib/gcc/msp430/4.7.0/mcpu-430x/mmpy-16/msr20/mc20/libcrt0.a(_unexpected_.o)
 .data          0x0000000000000000        0x0 /opt/msp430-47-expr/bin/../lib/gcc/msp430/4.7.0/mcpu-430x/mmpy-16/msr20/mc20/libcrt0.a(_unexpected_.o)
 .bss           0x0000000000000000        0x0 /opt/msp430-47-expr/bin/../lib/gcc/msp430/4.7.0/mcpu-430x/mmpy-16/msr20/mc20/libcrt0.a(_unexpected_.o)

Memory Configuration

Name             Origin             Length             Attributes
sfr              0x0000000000000000 0x0000000000000010
peripheral_8bit  0x0000000000000010 0x00000000000000f0
peripheral_16bit 0x0000000000000100 0x0000000000000100
bsl              0x0000000000001000 0x0000000000000800
infomem          0x0000000000001800 0x0000000000000200
infod            0x0000000000001800 0x0000000000000080
infoc            0x0000000000001880 0x0000000000000080
infob            0x0000000000001900 0x0000000000000080
infoa            0x0000000000001980 0x0000000000000080
ram              0x0000000000001c00 0x0000000000004000 xw
rom              0x0000000000005c00 0x000000000000a380 xr
vectors          0x000000000000ff80 0x0000000000000080
far_rom          0x0000000000010000 0x0000000000035c00
ram2             0x0000000000000000 0x0000000000000000 xw
ram_mirror       0x0000000000000000 0x0000000000000000 xw
usbram           0x0000000000000000 0x0000000000000000 xw
*default*        0x0000000000000000 0xffffffffffffffff

Linker script and memory map

LOAD /opt/msp430-47-expr/bin/../lib/gcc/msp430/4.7.0/mcpu-430x/mmpy-16/msr20/mc20/crt0ivtbl64.o
LOAD udp-server.co
LOAD obj_rm090/contiki-rm090-main.o
LOAD contiki-rm090.a
LOAD /opt/msp430-47-expr/bin/../lib/gcc/msp430/4.7.0/mcpu-430x/mmpy-16/msr20/mc20/libgcc.a
LOAD /opt/msp430-47-expr/bin/../lib/gcc/msp430/4.7.0/../../../../msp430/lib/mcpu-430x/mmpy-16/msr20/mc20/libc.a
LOAD /opt/msp430-47-expr/bin/../lib/gcc/msp430/4.7.0/mcpu-430x/mmpy-16/msr20/mc20/libgcc.a
LOAD /opt/msp430-47-expr/bin/../lib/gcc/msp430/4.7.0/mcpu-430x/mmpy-16/msr20/mc20/libcrt0.a
                0x0000000000000080                PROVIDE (__info_segment_size, 0x80)
                0x0000000000001800                PROVIDE (__infod, 0x1800)
                0x0000000000001880                PROVIDE (__infoc, 0x1880)
                0x0000000000001900                PROVIDE (__infob, 0x1900)
                0x0000000000001980                PROVIDE (__infoa, 0x1980)
                0x0000000000000700                __ADC12CTL0_L = 0x700
                0x0000000000000701                __ADC12CTL0_H = 0x701
                0x0000000000000700                __ADC12CTL0 = 0x700
                0x0000000000000702                __ADC12CTL1_L = 0x702
                0x0000000000000703                __ADC12CTL1_H = 0x703
                0x0000000000000702                __ADC12CTL1 = 0x702
                0x0000000000000704                __ADC12CTL2_L = 0x704
                0x0000000000000705                __ADC12CTL2_H = 0x705
                0x0000000000000704                __ADC12CTL2 = 0x704
                0x000000000000070a                __ADC12IFG_L = 0x70a
                0x000000000000070b                __ADC12IFG_H = 0x70b
                0x000000000000070a                __ADC12IFG = 0x70a
                0x000000000000070c                __ADC12IE_L = 0x70c
                0x000000000000070d                __ADC12IE_H = 0x70d
                0x000000000000070c                __ADC12IE = 0x70c
                0x000000000000070e                __ADC12IV_L = 0x70e
                0x000000000000070f                __ADC12IV_H = 0x70f
                0x000000000000070e                __ADC12IV = 0x70e
                0x0000000000000720                __ADC12MEM0_L = 0x720
                0x0000000000000721                __ADC12MEM0_H = 0x721
                0x0000000000000720                __ADC12MEM0 = 0x720
                0x0000000000000722                __ADC12MEM1_L = 0x722
                0x0000000000000723                __ADC12MEM1_H = 0x723
                0x0000000000000722                __ADC12MEM1 = 0x722
                0x0000000000000724                __ADC12MEM2_L = 0x724
                0x0000000000000725                __ADC12MEM2_H = 0x725
                0x0000000000000724                __ADC12MEM2 = 0x724
                0x0000000000000726                __ADC12MEM3_L = 0x726
                0x0000000000000727                __ADC12MEM3_H = 0x727
                0x0000000000000726                __ADC12MEM3 = 0x726
                0x0000000000000728                __ADC12MEM4_L = 0x728
                0x0000000000000729                __ADC12MEM4_H = 0x729
                0x0000000000000728                __ADC12MEM4 = 0x728
                0x000000000000072a                __ADC12MEM5_L = 0x72a
                0x000000000000072b                __ADC12MEM5_H = 0x72b
                0x000000000000072a                __ADC12MEM5 = 0x72a
                0x000000000000072c                __ADC12MEM6_L = 0x72c
                0x000000000000072d                __ADC12MEM6_H = 0x72d
                0x000000000000072c                __ADC12MEM6 = 0x72c
                0x000000000000072e                __ADC12MEM7_L = 0x72e
                0x000000000000072f                __ADC12MEM7_H = 0x72f
                0x000000000000072e                __ADC12MEM7 = 0x72e
                0x0000000000000730                __ADC12MEM8_L = 0x730
                0x0000000000000731                __ADC12MEM8_H = 0x731
                0x0000000000000730                __ADC12MEM8 = 0x730
                0x0000000000000732                __ADC12MEM9_L = 0x732
                0x0000000000000733                __ADC12MEM9_H = 0x733
                0x0000000000000732                __ADC12MEM9 = 0x732
                0x0000000000000734                __ADC12MEM10_L = 0x734
                0x0000000000000735                __ADC12MEM10_H = 0x735
                0x0000000000000734                __ADC12MEM10 = 0x734
                0x0000000000000736                __ADC12MEM11_L = 0x736
                0x0000000000000737                __ADC12MEM11_H = 0x737
                0x0000000000000736                __ADC12MEM11 = 0x736
                0x0000000000000738                __ADC12MEM12_L = 0x738
                0x0000000000000739                __ADC12MEM12_H = 0x739
                0x0000000000000738                __ADC12MEM12 = 0x738
                0x000000000000073a                __ADC12MEM13_L = 0x73a
                0x000000000000073b                __ADC12MEM13_H = 0x73b
                0x000000000000073a                __ADC12MEM13 = 0x73a
                0x000000000000073c                __ADC12MEM14_L = 0x73c
                0x000000000000073d                __ADC12MEM14_H = 0x73d
                0x000000000000073c                __ADC12MEM14 = 0x73c
                0x000000000000073e                __ADC12MEM15_L = 0x73e
                0x000000000000073f                __ADC12MEM15_H = 0x73f
                0x000000000000073e                __ADC12MEM15 = 0x73e
                0x0000000000000710                __ADC12MCTL0 = 0x710
                0x0000000000000711                __ADC12MCTL1 = 0x711
                0x0000000000000712                __ADC12MCTL2 = 0x712
                0x0000000000000713                __ADC12MCTL3 = 0x713
                0x0000000000000714                __ADC12MCTL4 = 0x714
                0x0000000000000715                __ADC12MCTL5 = 0x715
                0x0000000000000716                __ADC12MCTL6 = 0x716
                0x0000000000000717                __ADC12MCTL7 = 0x717
                0x0000000000000718                __ADC12MCTL8 = 0x718
                0x0000000000000719                __ADC12MCTL9 = 0x719
                0x000000000000071a                __ADC12MCTL10 = 0x71a
                0x000000000000071b                __ADC12MCTL11 = 0x71b
                0x000000000000071c                __ADC12MCTL12 = 0x71c
                0x000000000000071d                __ADC12MCTL13 = 0x71d
                0x000000000000071e                __ADC12MCTL14 = 0x71e
                0x000000000000071f                __ADC12MCTL15 = 0x71f
                0x0000000000000150                __CRCDI_L = 0x150
                0x0000000000000151                __CRCDI_H = 0x151
                0x0000000000000150                __CRCDI = 0x150
                0x0000000000000154                __CRCINIRES_L = 0x154
                0x0000000000000155                __CRCINIRES_H = 0x155
                0x0000000000000154                __CRCINIRES = 0x154
                0x0000000000000500                __DMACTL0_L = 0x500
                0x0000000000000501                __DMACTL0_H = 0x501
                0x0000000000000500                __DMACTL0 = 0x500
                0x0000000000000502                __DMACTL1_L = 0x502
                0x0000000000000503                __DMACTL1_H = 0x503
                0x0000000000000502                __DMACTL1 = 0x502
                0x0000000000000504                __DMACTL2_L = 0x504
                0x0000000000000505                __DMACTL2_H = 0x505
                0x0000000000000504                __DMACTL2 = 0x504
                0x0000000000000506                __DMACTL3_L = 0x506
                0x0000000000000507                __DMACTL3_H = 0x507
                0x0000000000000506                __DMACTL3 = 0x506
                0x0000000000000508                __DMACTL4_L = 0x508
                0x0000000000000509                __DMACTL4_H = 0x509
                0x0000000000000508                __DMACTL4 = 0x508
                0x000000000000050e                __DMAIV_L = 0x50e
                0x000000000000050f                __DMAIV_H = 0x50f
                0x000000000000050e                __DMAIV = 0x50e
                0x0000000000000510                __DMA0CTL_L = 0x510
                0x0000000000000511                __DMA0CTL_H = 0x511
                0x0000000000000510                __DMA0CTL = 0x510
                0x0000000000000512                __DMA0SA = 0x512
                0x0000000000000516                __DMA0DA = 0x516
                0x000000000000051a                __DMA0SZ = 0x51a
                0x0000000000000520                __DMA1CTL_L = 0x520
                0x0000000000000521                __DMA1CTL_H = 0x521
                0x0000000000000520                __DMA1CTL = 0x520
                0x0000000000000522                __DMA1SA = 0x522
                0x0000000000000526                __DMA1DA = 0x526
                0x000000000000052a                __DMA1SZ = 0x52a
                0x0000000000000530                __DMA2CTL_L = 0x530
                0x0000000000000531                __DMA2CTL_H = 0x531
                0x0000000000000530                __DMA2CTL = 0x530
                0x0000000000000532                __DMA2SA = 0x532
                0x0000000000000536                __DMA2DA = 0x536
                0x000000000000053a                __DMA2SZ = 0x53a
                0x0000000000000140                __FCTL1_L = 0x140
                0x0000000000000141                __FCTL1_H = 0x141
                0x0000000000000140                __FCTL1 = 0x140
                0x0000000000000144                __FCTL3_L = 0x144
                0x0000000000000145                __FCTL3_H = 0x145
                0x0000000000000144                __FCTL3 = 0x144
                0x0000000000000146                __FCTL4_L = 0x146
                0x0000000000000147                __FCTL4_H = 0x147
                0x0000000000000146                __FCTL4 = 0x146
                0x00000000000004c0                __MPY_L = 0x4c0
                0x00000000000004c1                __MPY_H = 0x4c1
                0x00000000000004c0                __MPY = 0x4c0
                0x00000000000004c2                __MPYS_L = 0x4c2
                0x00000000000004c3                __MPYS_H = 0x4c3
                0x00000000000004c2                __MPYS = 0x4c2
                0x00000000000004c4                __MAC_L = 0x4c4
                0x00000000000004c5                __MAC_H = 0x4c5
                0x00000000000004c4                __MAC = 0x4c4
                0x00000000000004c6                __MACS_L = 0x4c6
                0x00000000000004c7                __MACS_H = 0x4c7
                0x00000000000004c6                __MACS = 0x4c6
                0x00000000000004c8                __OP2_L = 0x4c8
                0x00000000000004c9                __OP2_H = 0x4c9
                0x00000000000004c8                __OP2 = 0x4c8
                0x00000000000004ca                __RESLO_L = 0x4ca
                0x00000000000004cb                __RESLO_H = 0x4cb
                0x00000000000004ca                __RESLO = 0x4ca
                0x00000000000004cc                __RESHI_L = 0x4cc
                0x00000000000004cd                __RESHI_H = 0x4cd
                0x00000000000004cc                __RESHI = 0x4cc
                0x00000000000004ce                __SUMEXT_L = 0x4ce
                0x00000000000004cf                __SUMEXT_H = 0x4cf
                0x00000000000004ce                __SUMEXT = 0x4ce
                0x00000000000004d0                __MPY32L_L = 0x4d0
                0x00000000000004d1                __MPY32L_H = 0x4d1
                0x00000000000004d0                __MPY32L = 0x4d0
                0x00000000000004d2                __MPY32H_L = 0x4d2
                0x00000000000004d3                __MPY32H_H = 0x4d3
                0x00000000000004d2                __MPY32H = 0x4d2
                0x00000000000004d4                __MPYS32L_L = 0x4d4
                0x00000000000004d5                __MPYS32L_H = 0x4d5
                0x00000000000004d4                __MPYS32L = 0x4d4
                0x00000000000004d6                __MPYS32H_L = 0x4d6
                0x00000000000004d7                __MPYS32H_H = 0x4d7
                0x00000000000004d6                __MPYS32H = 0x4d6
                0x00000000000004d8                __MAC32L_L = 0x4d8
                0x00000000000004d9                __MAC32L_H = 0x4d9
                0x00000000000004d8                __MAC32L = 0x4d8
                0x00000000000004da                __MAC32H_L = 0x4da
                0x00000000000004db                __MAC32H_H = 0x4db
                0x00000000000004da                __MAC32H = 0x4da
                0x00000000000004dc                __MACS32L_L = 0x4dc
                0x00000000000004dd                __MACS32L_H = 0x4dd
                0x00000000000004dc                __MACS32L = 0x4dc
                0x00000000000004de                __MACS32H_L = 0x4de
                0x00000000000004df                __MACS32H_H = 0x4df
                0x00000000000004de                __MACS32H = 0x4de
                0x00000000000004e0                __OP2L_L = 0x4e0
                0x00000000000004e1                __OP2L_H = 0x4e1
                0x00000000000004e0                __OP2L = 0x4e0
                0x00000000000004e2                __OP2H_L = 0x4e2
                0x00000000000004e3                __OP2H_H = 0x4e3
                0x00000000000004e2                __OP2H = 0x4e2
                0x00000000000004e4                __RES0_L = 0x4e4
                0x00000000000004e5                __RES0_H = 0x4e5
                0x00000000000004e4                __RES0 = 0x4e4
                0x00000000000004e6                __RES1_L = 0x4e6
                0x00000000000004e7                __RES1_H = 0x4e7
                0x00000000000004e6                __RES1 = 0x4e6
                0x00000000000004e8                __RES2_L = 0x4e8
                0x00000000000004e9                __RES2_H = 0x4e9
                0x00000000000004e8                __RES2 = 0x4e8
                0x00000000000004ea                __RES3_L = 0x4ea
                0x00000000000004eb                __RES3_H = 0x4eb
                0x00000000000004ea                __RES3 = 0x4ea
                0x00000000000004ec                __MPY32CTL0_L = 0x4ec
                0x00000000000004ed                __MPY32CTL0_H = 0x4ed
                0x00000000000004ec                __MPY32CTL0 = 0x4ec
                0x0000000000000200                __PAIN_L = 0x200
                0x0000000000000201                __PAIN_H = 0x201
                0x0000000000000200                __PAIN = 0x200
                0x0000000000000202                __PAOUT_L = 0x202
                0x0000000000000203                __PAOUT_H = 0x203
                0x0000000000000202                __PAOUT = 0x202
                0x0000000000000204                __PADIR_L = 0x204
                0x0000000000000205                __PADIR_H = 0x205
                0x0000000000000204                __PADIR = 0x204
                0x0000000000000206                __PAREN_L = 0x206
                0x0000000000000207                __PAREN_H = 0x207
                0x0000000000000206                __PAREN = 0x206
                0x0000000000000208                __PADS_L = 0x208
                0x0000000000000209                __PADS_H = 0x209
                0x0000000000000208                __PADS = 0x208
                0x000000000000020a                __PASEL_L = 0x20a
                0x000000000000020b                __PASEL_H = 0x20b
                0x000000000000020a                __PASEL = 0x20a
                0x0000000000000218                __PAIES_L = 0x218
                0x0000000000000219                __PAIES_H = 0x219
                0x0000000000000218                __PAIES = 0x218
                0x000000000000021a                __PAIE_L = 0x21a
                0x000000000000021b                __PAIE_H = 0x21b
                0x000000000000021a                __PAIE = 0x21a
                0x000000000000021c                __PAIFG_L = 0x21c
                0x000000000000021d                __PAIFG_H = 0x21d
                0x000000000000021c                __PAIFG = 0x21c
                0x000000000000020e                __P1IV = 0x20e
                0x000000000000021e                __P2IV = 0x21e
                0x0000000000000220                __PBIN_L = 0x220
                0x0000000000000221                __PBIN_H = 0x221
                0x0000000000000220                __PBIN = 0x220
                0x0000000000000222                __PBOUT_L = 0x222
                0x0000000000000223                __PBOUT_H = 0x223
                0x0000000000000222                __PBOUT = 0x222
                0x0000000000000224                __PBDIR_L = 0x224
                0x0000000000000225                __PBDIR_H = 0x225
                0x0000000000000224                __PBDIR = 0x224
                0x0000000000000226                __PBREN_L = 0x226
                0x0000000000000227                __PBREN_H = 0x227
                0x0000000000000226                __PBREN = 0x226
                0x0000000000000228                __PBDS_L = 0x228
                0x0000000000000229                __PBDS_H = 0x229
                0x0000000000000228                __PBDS = 0x228
                0x000000000000022a                __PBSEL_L = 0x22a
                0x000000000000022b                __PBSEL_H = 0x22b
                0x000000000000022a                __PBSEL = 0x22a
                0x0000000000000240                __PCIN_L = 0x240
                0x0000000000000241                __PCIN_H = 0x241
                0x0000000000000240                __PCIN = 0x240
                0x0000000000000242                __PCOUT_L = 0x242
                0x0000000000000243                __PCOUT_H = 0x243
                0x0000000000000242                __PCOUT = 0x242
                0x0000000000000244                __PCDIR_L = 0x244
                0x0000000000000245                __PCDIR_H = 0x245
                0x0000000000000244                __PCDIR = 0x244
                0x0000000000000246                __PCREN_L = 0x246
                0x0000000000000247                __PCREN_H = 0x247
                0x0000000000000246                __PCREN = 0x246
                0x0000000000000248                __PCDS_L = 0x248
                0x0000000000000249                __PCDS_H = 0x249
                0x0000000000000248                __PCDS = 0x248
                0x000000000000024a                __PCSEL_L = 0x24a
                0x000000000000024b                __PCSEL_H = 0x24b
                0x000000000000024a                __PCSEL = 0x24a
                0x0000000000000260                __PDIN_L = 0x260
                0x0000000000000261                __PDIN_H = 0x261
                0x0000000000000260                __PDIN = 0x260
                0x0000000000000262                __PDOUT_L = 0x262
                0x0000000000000263                __PDOUT_H = 0x263
                0x0000000000000262                __PDOUT = 0x262
                0x0000000000000264                __PDDIR_L = 0x264
                0x0000000000000265                __PDDIR_H = 0x265
                0x0000000000000264                __PDDIR = 0x264
                0x0000000000000266                __PDREN_L = 0x266
                0x0000000000000267                __PDREN_H = 0x267
                0x0000000000000266                __PDREN = 0x266
                0x0000000000000268                __PDDS_L = 0x268
                0x0000000000000269                __PDDS_H = 0x269
                0x0000000000000268                __PDDS = 0x268
                0x000000000000026a                __PDSEL_L = 0x26a
                0x000000000000026b                __PDSEL_H = 0x26b
                0x000000000000026a                __PDSEL = 0x26a
                0x0000000000000280                __PEIN_L = 0x280
                0x0000000000000281                __PEIN_H = 0x281
                0x0000000000000280                __PEIN = 0x280
                0x0000000000000282                __PEOUT_L = 0x282
                0x0000000000000283                __PEOUT_H = 0x283
                0x0000000000000282                __PEOUT = 0x282
                0x0000000000000284                __PEDIR_L = 0x284
                0x0000000000000285                __PEDIR_H = 0x285
                0x0000000000000284                __PEDIR = 0x284
                0x0000000000000286                __PEREN_L = 0x286
                0x0000000000000287                __PEREN_H = 0x287
                0x0000000000000286                __PEREN = 0x286
                0x0000000000000288                __PEDS_L = 0x288
                0x0000000000000289                __PEDS_H = 0x289
                0x0000000000000288                __PEDS = 0x288
                0x000000000000028a                __PESEL_L = 0x28a
                0x000000000000028b                __PESEL_H = 0x28b
                0x000000000000028a                __PESEL = 0x28a
                0x00000000000002a0                __PFIN_L = 0x2a0
                0x00000000000002a1                __PFIN_H = 0x2a1
                0x00000000000002a0                __PFIN = 0x2a0
                0x00000000000002a2                __PFOUT_L = 0x2a2
                0x00000000000002a3                __PFOUT_H = 0x2a3
                0x00000000000002a2                __PFOUT = 0x2a2
                0x00000000000002a4                __PFDIR_L = 0x2a4
                0x00000000000002a5                __PFDIR_H = 0x2a5
                0x00000000000002a4                __PFDIR = 0x2a4
                0x00000000000002a6                __PFREN_L = 0x2a6
                0x00000000000002a7                __PFREN_H = 0x2a7
                0x00000000000002a6                __PFREN = 0x2a6
                0x00000000000002a8                __PFDS_L = 0x2a8
                0x00000000000002a9                __PFDS_H = 0x2a9
                0x00000000000002a8                __PFDS = 0x2a8
                0x00000000000002aa                __PFSEL_L = 0x2aa
                0x00000000000002ab                __PFSEL_H = 0x2ab
                0x00000000000002aa                __PFSEL = 0x2aa
                0x0000000000000320                __PJIN_L = 0x320
                0x0000000000000321                __PJIN_H = 0x321
                0x0000000000000320                __PJIN = 0x320
                0x0000000000000322                __PJOUT_L = 0x322
                0x0000000000000323                __PJOUT_H = 0x323
                0x0000000000000322                __PJOUT = 0x322
                0x0000000000000324                __PJDIR_L = 0x324
                0x0000000000000325                __PJDIR_H = 0x325
                0x0000000000000324                __PJDIR = 0x324
                0x0000000000000326                __PJREN_L = 0x326
                0x0000000000000327                __PJREN_H = 0x327
                0x0000000000000326                __PJREN = 0x326
                0x0000000000000328                __PJDS_L = 0x328
                0x0000000000000329                __PJDS_H = 0x329
                0x0000000000000328                __PJDS = 0x328
                0x0000000000000120                __PMMCTL0_L = 0x120
                0x0000000000000121                __PMMCTL0_H = 0x121
                0x0000000000000120                __PMMCTL0 = 0x120
                0x0000000000000122                __PMMCTL1_L = 0x122
                0x0000000000000123                __PMMCTL1_H = 0x123
                0x0000000000000122                __PMMCTL1 = 0x122
                0x0000000000000124                __SVSMHCTL_L = 0x124
                0x0000000000000125                __SVSMHCTL_H = 0x125
                0x0000000000000124                __SVSMHCTL = 0x124
                0x0000000000000126                __SVSMLCTL_L = 0x126
                0x0000000000000127                __SVSMLCTL_H = 0x127
                0x0000000000000126                __SVSMLCTL = 0x126
                0x0000000000000128                __SVSMIO_L = 0x128
                0x0000000000000129                __SVSMIO_H = 0x129
                0x0000000000000128                __SVSMIO = 0x128
                0x000000000000012c                __PMMIFG_L = 0x12c
                0x000000000000012d                __PMMIFG_H = 0x12d
                0x000000000000012c                __PMMIFG = 0x12c
                0x000000000000012e                __PMMRIE_L = 0x12e
                0x000000000000012f                __PMMRIE_H = 0x12f
                0x000000000000012e                __PMMRIE = 0x12e
                0x0000000000000158                __RCCTL0_L = 0x158
                0x0000000000000159                __RCCTL0_H = 0x159
                0x0000000000000158                __RCCTL0 = 0x158
                0x00000000000004a0                __RTCCTL01_L = 0x4a0
                0x00000000000004a1                __RTCCTL01_H = 0x4a1
                0x00000000000004a0                __RTCCTL01 = 0x4a0
                0x00000000000004a2                __RTCCTL23_L = 0x4a2
                0x00000000000004a3                __RTCCTL23_H = 0x4a3
                0x00000000000004a2                __RTCCTL23 = 0x4a2
                0x00000000000004a8                __RTCPS0CTL_L = 0x4a8
                0x00000000000004a9                __RTCPS0CTL_H = 0x4a9
                0x00000000000004a8                __RTCPS0CTL = 0x4a8
                0x00000000000004aa                __RTCPS1CTL_L = 0x4aa
                0x00000000000004ab                __RTCPS1CTL_H = 0x4ab
                0x00000000000004aa                __RTCPS1CTL = 0x4aa
                0x00000000000004ac                __RTCPS_L = 0x4ac
                0x00000000000004ad                __RTCPS_H = 0x4ad
                0x00000000000004ac                __RTCPS = 0x4ac
                0x00000000000004ae                __RTCIV = 0x4ae
                0x00000000000004b0                __RTCTIM0_L = 0x4b0
                0x00000000000004b1                __RTCTIM0_H = 0x4b1
                0x00000000000004b0                __RTCTIM0 = 0x4b0
                0x00000000000004b2                __RTCTIM1_L = 0x4b2
                0x00000000000004b3                __RTCTIM1_H = 0x4b3
                0x00000000000004b2                __RTCTIM1 = 0x4b2
                0x00000000000004b4                __RTCDATE_L = 0x4b4
                0x00000000000004b5                __RTCDATE_H = 0x4b5
                0x00000000000004b4                __RTCDATE = 0x4b4
                0x00000000000004b6                __RTCYEAR_L = 0x4b6
                0x00000000000004b7                __RTCYEAR_H = 0x4b7
                0x00000000000004b6                __RTCYEAR = 0x4b6
                0x00000000000004b8                __RTCAMINHR_L = 0x4b8
                0x00000000000004b9                __RTCAMINHR_H = 0x4b9
                0x00000000000004b8                __RTCAMINHR = 0x4b8
                0x00000000000004ba                __RTCADOWDAY_L = 0x4ba
                0x00000000000004bb                __RTCADOWDAY_H = 0x4bb
                0x00000000000004ba                __RTCADOWDAY = 0x4ba
                0x0000000000000100                __SFRIE1_L = 0x100
                0x0000000000000101                __SFRIE1_H = 0x101
                0x0000000000000100                __SFRIE1 = 0x100
                0x0000000000000102                __SFRIFG1_L = 0x102
                0x0000000000000103                __SFRIFG1_H = 0x103
                0x0000000000000102                __SFRIFG1 = 0x102
                0x0000000000000104                __SFRRPCR_L = 0x104
                0x0000000000000105                __SFRRPCR_H = 0x105
                0x0000000000000104                __SFRRPCR = 0x104
                0x0000000000000180                __SYSCTL_L = 0x180
                0x0000000000000181                __SYSCTL_H = 0x181
                0x0000000000000180                __SYSCTL = 0x180
                0x0000000000000182                __SYSBSLC_L = 0x182
                0x0000000000000183                __SYSBSLC_H = 0x183
                0x0000000000000182                __SYSBSLC = 0x182
                0x0000000000000186                __SYSJMBC_L = 0x186
                0x0000000000000187                __SYSJMBC_H = 0x187
                0x0000000000000186                __SYSJMBC = 0x186
                0x0000000000000188                __SYSJMBI0_L = 0x188
                0x0000000000000189                __SYSJMBI0_H = 0x189
                0x0000000000000188                __SYSJMBI0 = 0x188
                0x000000000000018a                __SYSJMBI1_L = 0x18a
                0x000000000000018b                __SYSJMBI1_H = 0x18b
                0x000000000000018a                __SYSJMBI1 = 0x18a
                0x000000000000018c                __SYSJMBO0_L = 0x18c
                0x000000000000018d                __SYSJMBO0_H = 0x18d
                0x000000000000018c                __SYSJMBO0 = 0x18c
                0x000000000000018e                __SYSJMBO1_L = 0x18e
                0x000000000000018f                __SYSJMBO1_H = 0x18f
                0x000000000000018e                __SYSJMBO1 = 0x18e
                0x000000000000019a                __SYSUNIV_L = 0x19a
                0x000000000000019b                __SYSUNIV_H = 0x19b
                0x000000000000019a                __SYSUNIV = 0x19a
                0x000000000000019c                __SYSSNIV_L = 0x19c
                0x000000000000019d                __SYSSNIV_H = 0x19d
                0x000000000000019c                __SYSSNIV = 0x19c
                0x000000000000019e                __SYSRSTIV_L = 0x19e
                0x000000000000019f                __SYSRSTIV_H = 0x19f
                0x000000000000019e                __SYSRSTIV = 0x19e
                0x0000000000000340                __TA0CTL = 0x340
                0x0000000000000342                __TA0CCTL0 = 0x342
                0x0000000000000344                __TA0CCTL1 = 0x344
                0x0000000000000346                __TA0CCTL2 = 0x346
                0x0000000000000348                __TA0CCTL3 = 0x348
                0x000000000000034a                __TA0CCTL4 = 0x34a
                0x0000000000000350                __TA0R = 0x350
                0x0000000000000352                __TA0CCR0 = 0x352
                0x0000000000000354                __TA0CCR1 = 0x354
                0x0000000000000356                __TA0CCR2 = 0x356
                0x0000000000000358                __TA0CCR3 = 0x358
                0x000000000000035a                __TA0CCR4 = 0x35a
                0x000000000000036e                __TA0IV = 0x36e
                0x0000000000000360                __TA0EX0 = 0x360
                0x0000000000000380                __TA1CTL = 0x380
                0x0000000000000382                __TA1CCTL0 = 0x382
                0x0000000000000384                __TA1CCTL1 = 0x384
                0x0000000000000386                __TA1CCTL2 = 0x386
                0x0000000000000390                __TA1R = 0x390
                0x0000000000000392                __TA1CCR0 = 0x392
                0x0000000000000394                __TA1CCR1 = 0x394
                0x0000000000000396                __TA1CCR2 = 0x396
                0x00000000000003ae                __TA1IV = 0x3ae
                0x00000000000003a0                __TA1EX0 = 0x3a0
                0x00000000000003c0                __TB0CTL = 0x3c0
                0x00000000000003c2                __TB0CCTL0 = 0x3c2
                0x00000000000003c4                __TB0CCTL1 = 0x3c4
                0x00000000000003c6                __TB0CCTL2 = 0x3c6
                0x00000000000003c8                __TB0CCTL3 = 0x3c8
                0x00000000000003ca                __TB0CCTL4 = 0x3ca
                0x00000000000003cc                __TB0CCTL5 = 0x3cc
                0x00000000000003ce                __TB0CCTL6 = 0x3ce
                0x00000000000003d0                __TB0R = 0x3d0
                0x00000000000003d2                __TB0CCR0 = 0x3d2
                0x00000000000003d4                __TB0CCR1 = 0x3d4
                0x00000000000003d6                __TB0CCR2 = 0x3d6
                0x00000000000003d8                __TB0CCR3 = 0x3d8
                0x00000000000003da                __TB0CCR4 = 0x3da
                0x00000000000003dc                __TB0CCR5 = 0x3dc
                0x00000000000003de                __TB0CCR6 = 0x3de
                0x00000000000003e0                __TB0EX0 = 0x3e0
                0x00000000000003ee                __TB0IV = 0x3ee
                0x0000000000000160                __UCSCTL0_L = 0x160
                0x0000000000000161                __UCSCTL0_H = 0x161
                0x0000000000000160                __UCSCTL0 = 0x160
                0x0000000000000162                __UCSCTL1_L = 0x162
                0x0000000000000163                __UCSCTL1_H = 0x163
                0x0000000000000162                __UCSCTL1 = 0x162
                0x0000000000000164                __UCSCTL2_L = 0x164
                0x0000000000000165                __UCSCTL2_H = 0x165
                0x0000000000000164                __UCSCTL2 = 0x164
                0x0000000000000166                __UCSCTL3_L = 0x166
                0x0000000000000167                __UCSCTL3_H = 0x167
                0x0000000000000166                __UCSCTL3 = 0x166
                0x0000000000000168                __UCSCTL4_L = 0x168
                0x0000000000000169                __UCSCTL4_H = 0x169
                0x0000000000000168                __UCSCTL4 = 0x168
                0x000000000000016a                __UCSCTL5_L = 0x16a
                0x000000000000016b                __UCSCTL5_H = 0x16b
                0x000000000000016a                __UCSCTL5 = 0x16a
                0x000000000000016c                __UCSCTL6_L = 0x16c
                0x000000000000016d                __UCSCTL6_H = 0x16d
                0x000000000000016c                __UCSCTL6 = 0x16c
                0x000000000000016e                __UCSCTL7_L = 0x16e
                0x000000000000016f                __UCSCTL7_H = 0x16f
                0x000000000000016e                __UCSCTL7 = 0x16e
                0x0000000000000170                __UCSCTL8_L = 0x170
                0x0000000000000171                __UCSCTL8_H = 0x171
                0x0000000000000170                __UCSCTL8 = 0x170
                0x00000000000005c0                __UCA0CTLW0_L = 0x5c0
                0x00000000000005c1                __UCA0CTLW0_H = 0x5c1
                0x00000000000005c0                __UCA0CTLW0 = 0x5c0
                0x00000000000005c6                __UCA0BRW_L = 0x5c6
                0x00000000000005c7                __UCA0BRW_H = 0x5c7
                0x00000000000005c6                __UCA0BRW = 0x5c6
                0x00000000000005c8                __UCA0MCTL = 0x5c8
                0x00000000000005ca                __UCA0STAT = 0x5ca
                0x00000000000005cc                __UCA0RXBUF = 0x5cc
                0x00000000000005ce                __UCA0TXBUF = 0x5ce
                0x00000000000005d0                __UCA0ABCTL = 0x5d0
                0x00000000000005d2                __UCA0IRCTL_L = 0x5d2
                0x00000000000005d3                __UCA0IRCTL_H = 0x5d3
                0x00000000000005d2                __UCA0IRCTL = 0x5d2
                0x00000000000005dc                __UCA0ICTL_L = 0x5dc
                0x00000000000005dd                __UCA0ICTL_H = 0x5dd
                0x00000000000005dc                __UCA0ICTL = 0x5dc
                0x00000000000005de                __UCA0IV = 0x5de
                0x00000000000005e0                __UCB0CTLW0_L = 0x5e0
                0x00000000000005e1                __UCB0CTLW0_H = 0x5e1
                0x00000000000005e0                __UCB0CTLW0 = 0x5e0
                0x00000000000005e6                __UCB0BRW_L = 0x5e6
                0x00000000000005e7                __UCB0BRW_H = 0x5e7
                0x00000000000005e6                __UCB0BRW = 0x5e6
                0x00000000000005ea                __UCB0STAT = 0x5ea
                0x00000000000005ec                __UCB0RXBUF = 0x5ec
                0x00000000000005ee                __UCB0TXBUF = 0x5ee
                0x00000000000005f0                __UCB0I2COA_L = 0x5f0
                0x00000000000005f1                __UCB0I2COA_H = 0x5f1
                0x00000000000005f0                __UCB0I2COA = 0x5f0
                0x00000000000005f2                __UCB0I2CSA_L = 0x5f2
                0x00000000000005f3                __UCB0I2CSA_H = 0x5f3
                0x00000000000005f2                __UCB0I2CSA = 0x5f2
                0x00000000000005fc                __UCB0ICTL_L = 0x5fc
                0x00000000000005fd                __UCB0ICTL_H = 0x5fd
                0x00000000000005fc                __UCB0ICTL = 0x5fc
                0x00000000000005fe                __UCB0IV = 0x5fe
                0x0000000000000600                __UCA1CTLW0_L = 0x600
                0x0000000000000601                __UCA1CTLW0_H = 0x601
                0x0000000000000600                __UCA1CTLW0 = 0x600
                0x0000000000000606                __UCA1BRW_L = 0x606
                0x0000000000000607                __UCA1BRW_H = 0x607
                0x0000000000000606                __UCA1BRW = 0x606
                0x0000000000000608                __UCA1MCTL = 0x608
                0x000000000000060a                __UCA1STAT = 0x60a
                0x000000000000060c                __UCA1RXBUF = 0x60c
                0x000000000000060e                __UCA1TXBUF = 0x60e
                0x0000000000000610                __UCA1ABCTL = 0x610
                0x0000000000000612                __UCA1IRCTL_L = 0x612
                0x0000000000000613                __UCA1IRCTL_H = 0x613
                0x0000000000000612                __UCA1IRCTL = 0x612
                0x000000000000061c                __UCA1ICTL_L = 0x61c
                0x000000000000061d                __UCA1ICTL_H = 0x61d
                0x000000000000061c                __UCA1ICTL = 0x61c
                0x000000000000061e                __UCA1IV = 0x61e
                0x0000000000000620                __UCB1CTLW0_L = 0x620
                0x0000000000000621                __UCB1CTLW0_H = 0x621
                0x0000000000000620                __UCB1CTLW0 = 0x620
                0x0000000000000626                __UCB1BRW_L = 0x626
                0x0000000000000627                __UCB1BRW_H = 0x627
                0x0000000000000626                __UCB1BRW = 0x626
                0x000000000000062a                __UCB1STAT = 0x62a
                0x000000000000062c                __UCB1RXBUF = 0x62c
                0x000000000000062e                __UCB1TXBUF = 0x62e
                0x0000000000000630                __UCB1I2COA_L = 0x630
                0x0000000000000631                __UCB1I2COA_H = 0x631
                0x0000000000000630                __UCB1I2COA = 0x630
                0x0000000000000632                __UCB1I2CSA_L = 0x632
                0x0000000000000633                __UCB1I2CSA_H = 0x633
                0x0000000000000632                __UCB1I2CSA = 0x632
                0x000000000000063c                __UCB1ICTL_L = 0x63c
                0x000000000000063d                __UCB1ICTL_H = 0x63d
                0x000000000000063c                __UCB1ICTL = 0x63c
                0x000000000000063e                __UCB1IV = 0x63e
                0x000000000000015c                __WDTCTL_L = 0x15c
                0x000000000000015d                __WDTCTL_H = 0x15d
                0x000000000000015c                __WDTCTL = 0x15c

.hash
 *(.hash)

.dynsym
 *(.dynsym)

.dynstr
 *(.dynstr)

.gnu.version
 *(.gnu.version)

.gnu.version_d
 *(.gnu.version_d)

.gnu.version_r
 *(.gnu.version_r)

.rel.init
 *(.rel.init)

.rela.init
 *(.rela.init)

.rel.fini
 *(.rel.fini)

.rela.fini
 *(.rela.fini)

.rel.text
 *(.rel.text .rel.text.* .rel.gnu.linkonce.t.*)

.rela.text
 *(.rela.text .rela.text.* .rela.gnu.linkonce.t.*)

.rel.rodata
 *(.rel.rodata .rel.rodata.* .rel.gnu.linkonce.r.*)

.rela.rodata
 *(.rela.rodata .rela.rodata.* .rela.gnu.linkonce.r.*)

.rel.data
 *(.rel.data .rel.data.* .rel.gnu.linkonce.d.*)

.rela.data
 *(.rela.data .rela.data.* .rela.gnu.linkonce.d.*)

.rel.bss
 *(.rel.bss .rel.bss.* .rel.gnu.linkonce.b.*)

.rela.bss
 *(.rela.bss .rela.bss.* .rela.gnu.linkonce.b.*)

.rel.ctors
 *(.rel.ctors)

.rela.ctors
 *(.rela.ctors)

.rel.dtors
 *(.rel.dtors)

.rela.dtors
 *(.rela.dtors)

.rel.got
 *(.rel.got)

.rela.got
 *(.rela.got)

.rel.plt
 *(.rel.plt)

.rela.plt
 *(.rela.plt)

.text           0x0000000000005c00     0x127a
                0x0000000000005c00                . = ALIGN (0x2)
 *(.init .init.*)
 *(.init0)
 .init0         0x0000000000005c00        0x0 /opt/msp430-47-expr/bin/../lib/gcc/msp430/4.7.0/mcpu-430x/mmpy-16/msr20/mc20/libcrt0.a(_reset_vector__.o)
                0x0000000000005c00                _reset_vector__
 *(.init1)
 .init1         0x0000000000005c00        0xc /opt/msp430-47-expr/bin/../lib/gcc/msp430/4.7.0/mcpu-430x/mmpy-16/msr20/mc20/libcrt0.a(__watchdog_support.o)
                0x0000000000005c00                __watchdog_support
 *(.init2)
 .init2         0x0000000000005c0c        0x4 /opt/msp430-47-expr/bin/../lib/gcc/msp430/4.7.0/mcpu-430x/mmpy-16/msr20/mc20/libcrt0.a(__init_stack.o)
                0x0000000000005c0c                __init_stack
 *(.init3)
 .init3         0x0000000000005c10        0x0 /opt/msp430-47-expr/bin/../lib/gcc/msp430/4.7.0/mcpu-430x/mmpy-16/msr20/mc20/libcrt0.a(__low_level_init.o)
                0x0000000000005c10                __low_level_init
 *(.init4)
 .init4         0x0000000000005c10       0x18 /opt/msp430-47-expr/bin/../lib/gcc/msp430/4.7.0/mcpu-430x/mmpy-16/msr20/mc20/libcrt0.a(_copy_data.o)
                0x0000000000005c10                __do_copy_data
 .init4         0x0000000000005c28       0x16 /opt/msp430-47-expr/bin/../lib/gcc/msp430/4.7.0/mcpu-430x/mmpy-16/msr20/mc20/libcrt0.a(_clear_bss.o)
                0x0000000000005c28                __do_clear_bss
 *(.init5)
 *(.init6)
 *(.init7)
 *(.init8)
 *(.init9)
 .init9         0x0000000000005c3e      0x144 obj_rm090/contiki-rm090-main.o
                0x0000000000005c3e                main
 *(.fini9)
 .fini9         0x0000000000005d82        0x0 /opt/msp430-47-expr/bin/../lib/gcc/msp430/4.7.0/mcpu-430x/mmpy-16/msr20/mc20/libcrt0.a(__stop_progExec__.o)
                0x0000000000005d82                __stop_progExec__
 *(.fini8)
 *(.fini7)
 *(.fini6)
 *(.fini5)
 *(.fini4)
 *(.fini3)
 *(.fini2)
 *(.fini1)
 *(.fini0)
 .fini0         0x0000000000005d82        0x6 /opt/msp430-47-expr/bin/../lib/gcc/msp430/4.7.0/mcpu-430x/mmpy-16/msr20/mc20/libcrt0.a(_endless_loop__.o)
                0x0000000000005d82                _endless_loop__
 *(.fini .fini.*)
                0x0000000000005d88                . = ALIGN (0x2)
                0x0000000000005d88                __ctors_start = .
 *(.ctors)
                0x0000000000005d88                __ctors_end = .
                0x0000000000005d88                __dtors_start = .
 *(.dtors)
                0x0000000000005d88                __dtors_end = .
                0x0000000000005d88                . = ALIGN (0x2)
 *(.text .text.* .gnu.linkonce.t.*)
 .text          0x0000000000005d88        0x4 /opt/msp430-47-expr/bin/../lib/gcc/msp430/4.7.0/mcpu-430x/mmpy-16/msr20/mc20/crt0ivtbl64.o
                0x0000000000005d88                __isr_37
                0x0000000000005d88                __isr_51
                0x0000000000005d88                __isr_57
                0x0000000000005d88                __isr_33
                0x0000000000005d88                __isr_32
                0x0000000000005d88                __isr_54
                0x0000000000005d88                __isr_42
                0x0000000000005d88                __isr_59
                0x0000000000005d88                __isr_39
                0x0000000000005d88                __isr_53
                0x0000000000005d88                __isr_41
                0x0000000000005d88                __isr_60
                0x0000000000005d88                __isr_36
                0x0000000000005d88                __isr_34
                0x0000000000005d88                __isr_44
                0x0000000000005d88                __isr_61
                0x0000000000005d88                __isr_55
                0x0000000000005d88                __isr_43
                0x0000000000005d88                __isr_50
                0x0000000000005d88                __isr_56
                0x0000000000005d88                __isr_38
                0x0000000000005d88                __isr_35
                0x0000000000005d88                __isr_45
                0x0000000000005d88                __isr_62
                0x0000000000005d88                __isr_52
                0x0000000000005d88                __isr_40
 .text.libgcc   0x0000000000005d8c       0x22 /opt/msp430-47-expr/bin/../lib/gcc/msp430/4.7.0/mcpu-430x/mmpy-16/msr20/mc20/libgcc.a(_udivmod16.o)
                0x0000000000005d8c                __udivhi3
                0x0000000000005d8c                __ext_udivmod16
                0x0000000000005da6                __umodhi3
 .text.libgcc   0x0000000000005dae       0x3a /opt/msp430-47-expr/bin/../lib/gcc/msp430/4.7.0/mcpu-430x/mmpy-16/msr20/mc20/libgcc.a(_divmod16.o)
                0x0000000000005dae                __ext_divmod16
                0x0000000000005dae                __divhi3
                0x0000000000005de0                __modhi3
 .text.libgcc   0x0000000000005de8       0x38 /opt/msp430-47-expr/bin/../lib/gcc/msp430/4.7.0/mcpu-430x/mmpy-16/msr20/mc20/libgcc.a(_udivmod32.o)
                0x0000000000005de8                __udivsi3
                0x0000000000005de8                __ext_udivmod32
                0x0000000000005e16                __umodsi3
 .text.libgcc   0x0000000000005e20       0x4c /opt/msp430-47-expr/bin/../lib/gcc/msp430/4.7.0/mcpu-430x/mmpy-16/msr20/mc20/libgcc.a(_divmod32.o)
                0x0000000000005e20                __ext_divmod32
                0x0000000000005e20                __divsi3
                0x0000000000005e62                __modsi3
 .text.ldiv     0x0000000000005e6c       0x12 /opt/msp430-47-expr/bin/../lib/gcc/msp430/4.7.0/../../../../msp430/lib/mcpu-430x/mmpy-16/msr20/mc20/libc.a(ldiv.o)
                0x0000000000005e6c                ldiv
 .text.libgcc   0x0000000000005e7e       0x26 /opt/msp430-47-expr/bin/../lib/gcc/msp430/4.7.0/mcpu-430x/mmpy-16/msr20/mc20/libgcc.a(_mulsi3.o)
                0x0000000000005e7e                __mulsi3
 .text.libgcc   0x0000000000005ea4       0xbc /opt/msp430-47-expr/bin/../lib/gcc/msp430/4.7.0/mcpu-430x/mmpy-16/msr20/mc20/libgcc.a(_udivmod64.o)
                0x0000000000005ea4                __xabi_udivmod64
                0x0000000000005ef6                __udivdi3
                0x0000000000005f10                __umoddi3
                0x0000000000005f32                __udivmoddi4
 .text.crt0     0x0000000000005f60        0x2 /opt/msp430-47-expr/bin/../lib/gcc/msp430/4.7.0/mcpu-430x/mmpy-16/msr20/mc20/libcrt0.a(_unexpected_.o)
                0x0000000000005f60                _unexpected_
 *(.near.text .near.text.*)
 .near.text.uart1_rx_interrupt
                0x0000000000005f62       0x36 contiki-rm090.a(uart1.o)
                0x0000000000005f62                __isr_46
                0x0000000000005f62                uart1_rx_interrupt
 .near.text.cc2520_port1_interrupt
                0x0000000000005f98       0x14 contiki-rm090.a(cc2520-arch.o)
                0x0000000000005f98                __isr_47
                0x0000000000005f98                cc2520_port1_interrupt
 .near.text.timera1
                0x0000000000005fac       0xec contiki-rm090.a(clock.o)
                0x0000000000005fac                __isr_48
                0x0000000000005fac                timera1
 .near.text.watchdog_interrupt
                0x0000000000006098        0x6 contiki-rm090.a(watchdog.o)
                0x0000000000006098                watchdog_interrupt
                0x0000000000006098                __isr_58
 .near.text.timera0
                0x000000000000609e       0x22 contiki-rm090.a(rtimer-arch.o)
                0x000000000000609e                __isr_49
                0x000000000000609e                timera0
 .any.text.atol
                0x00000000000060c0        0xc /opt/msp430-47-expr/bin/../lib/gcc/msp430/4.7.0/../../../../msp430/lib/mcpu-430x/mmpy-16/msr20/mc20/libc.a(atol.o)
                0x00000000000060c0                atol
 .any.text.atoi
                0x00000000000060cc       0x82 /opt/msp430-47-expr/bin/../lib/gcc/msp430/4.7.0/../../../../msp430/lib/mcpu-430x/mmpy-16/msr20/mc20/libc.a(atoi.o)
                0x00000000000060cc                atoi
 .any.text.strtol
                0x000000000000614e      0x186 /opt/msp430-47-expr/bin/../lib/gcc/msp430/4.7.0/../../../../msp430/lib/mcpu-430x/mmpy-16/msr20/mc20/libc.a(strtol.o)
                0x000000000000614e                strtol
 .any.text.printf
                0x00000000000062d4       0x10 /opt/msp430-47-expr/bin/../lib/gcc/msp430/4.7.0/../../../../msp430/lib/mcpu-430x/mmpy-16/msr20/mc20/libc.a(printf.o)
                0x00000000000062d4                printf
 .any.text.print_field
                0x00000000000062e4      0x176 /opt/msp430-47-expr/bin/../lib/gcc/msp430/4.7.0/../../../../msp430/lib/mcpu-430x/mmpy-16/msr20/mc20/libc.a(vuprintf.o)
 .any.text.vuprintf
                0x000000000000645a      0x74c /opt/msp430-47-expr/bin/../lib/gcc/msp430/4.7.0/../../../../msp430/lib/mcpu-430x/mmpy-16/msr20/mc20/libc.a(vuprintf.o)
                0x000000000000645a                vuprintf
 .any.text.puts
                0x0000000000006ba6       0x2c /opt/msp430-47-expr/bin/../lib/gcc/msp430/4.7.0/../../../../msp430/lib/mcpu-430x/mmpy-16/msr20/mc20/libc.a(puts.o)
                0x0000000000006ba6                puts
 .any.text.rand
                0x0000000000006bd2       0x26 /opt/msp430-47-expr/bin/../lib/gcc/msp430/4.7.0/../../../../msp430/lib/mcpu-430x/mmpy-16/msr20/mc20/libc.a(rand.o)
                0x0000000000006bd2                rand
 .any.text.strncmp
                0x0000000000006bf8       0x2a /opt/msp430-47-expr/bin/../lib/gcc/msp430/4.7.0/../../../../msp430/lib/mcpu-430x/mmpy-16/msr20/mc20/libc.a(strncmp.o)
                0x0000000000006bf8                strncmp
 .any.text.memcmp
                0x0000000000006c22       0x2c /opt/msp430-47-expr/bin/../lib/gcc/msp430/4.7.0/../../../../msp430/lib/mcpu-430x/mmpy-16/msr20/mc20/libc.a(memcmp.o)
                0x0000000000006c22                memcmp
 .any.text.memcpy
                0x0000000000006c4e       0xe8 /opt/msp430-47-expr/bin/../lib/gcc/msp430/4.7.0/../../../../msp430/lib/mcpu-430x/mmpy-16/msr20/mc20/libc.a(memcpy.o)
                0x0000000000006c4e                memcpy
 .any.text.memmove
                0x0000000000006d36       0xe8 /opt/msp430-47-expr/bin/../lib/gcc/msp430/4.7.0/../../../../msp430/lib/mcpu-430x/mmpy-16/msr20/mc20/libc.a(memmove.o)
                0x0000000000006d36                memmove
 .any.text.memset
                0x0000000000006e1e       0x5c /opt/msp430-47-expr/bin/../lib/gcc/msp430/4.7.0/../../../../msp430/lib/mcpu-430x/mmpy-16/msr20/mc20/libc.a(memset.o)
                0x0000000000006e1e                memset

.rodata         0x0000000000006e7c      0x315
                0x0000000000006e7c                . = ALIGN (0x2)
 *(.rodata .rodata.* .gnu.linkonce.r.*)
 .rodata.getfromjson
                0x0000000000006e7c       0x1e udp-server.co
 .rodata.process_thread_udp_server_process
                0x0000000000006e9a       0x17 udp-server.co
 *fill*         0x0000000000006eb1        0x1 00
 .rodata.autostart_processes
                0x0000000000006eb2        0x4 udp-server.co
                0x0000000000006eb2                autostart_processes
 .rodata        0x0000000000006eb6       0x13 udp-server.co
 .rodata.event_listener
                0x0000000000006ec9       0x28 contiki-rm090.a(serial-control-)
 *fill*         0x0000000000006ef1        0x1 00
 .rodata        0x0000000000006ef2       0x34 contiki-rm090.a(serial-control-)
 .rodata.process_thread_serial_control_process
                0x0000000000006f26       0x84 contiki-rm090.a(serial-control-)
 .rodata.serial_control_interface_init
                0x0000000000006faa       0x22 contiki-rm090.a(serial-control-)
 .rodata        0x0000000000006fcc        0x8 contiki-rm090.a(sensors.o)
 .rodata        0x0000000000006fd4        0x7 contiki-rm090.a(button-sensor.o)
 *fill*         0x0000000000006fdb        0x1 00
 .rodata.button_sensor
                0x0000000000006fdc        0xe contiki-rm090.a(button-sensor.o)
                0x0000000000006fdc                button_sensor
 .rodata        0x0000000000006fea        0x6 contiki-rm090.a(radio-sensor.o)
 .rodata.radio_sensor
                0x0000000000006ff0        0xe contiki-rm090.a(radio-sensor.o)
                0x0000000000006ff0                radio_sensor
 .rodata.cc2520_driver
                0x0000000000006ffe       0x38 contiki-rm090.a(cc2520.o)
                0x0000000000006ffe                cc2520_driver
 .rodata        0x0000000000007036        0xe contiki-rm090.a(cc2520.o)
 .rodata        0x0000000000007044        0xf contiki-rm090.a(ctimer.o)
 .rodata        0x0000000000007053        0xc contiki-rm090.a(etimer.o)
 .rodata        0x000000000000705f        0xe contiki-rm090.a(serial-line.o)
 *fill*         0x000000000000706d        0x3 00
 .rodata.uip_process
                0x0000000000007070       0x40 contiki-rm090.a(uip6.o)
 .rodata        0x00000000000070b0        0xb contiki-rm090.a(sicslowpan.o)
 *fill*         0x00000000000070bb        0x1 00
 .rodata.sicslowpan_driver
                0x00000000000070bc        0xa contiki-rm090.a(sicslowpan.o)
                0x00000000000070bc                sicslowpan_driver
 .rodata.llprefix
                0x00000000000070c6        0x2 contiki-rm090.a(sicslowpan.o)
                0x00000000000070c6                llprefix
 .rodata.unc_mxconf
                0x00000000000070c8        0x4 contiki-rm090.a(sicslowpan.o)
                0x00000000000070c8                unc_mxconf
 .rodata.unc_ctxconf
                0x00000000000070cc        0x4 contiki-rm090.a(sicslowpan.o)
                0x00000000000070cc                unc_ctxconf
 .rodata.unc_llconf
                0x00000000000070d0        0x4 contiki-rm090.a(sicslowpan.o)
                0x00000000000070d0                unc_llconf
 .rodata.ttl_values
                0x00000000000070d4        0x4 contiki-rm090.a(sicslowpan.o)
 .rodata        0x00000000000070d8        0xd contiki-rm090.a(tcpip.o)
 .rodata.uip_debug_ipaddr_print
                0x00000000000070e5       0x28 contiki-rm090.a(uip-debug.o)
 *fill*         0x000000000000710d        0x1 00
 .rodata.linkaddr_null
                0x000000000000710e        0x8 contiki-rm090.a(linkaddr.o)
                0x000000000000710e                linkaddr_null
 .rodata.framer_802154
                0x0000000000007116        0xc contiki-rm090.a(framer-802154.o)
                0x0000000000007116                framer_802154
 .rodata        0x0000000000007122        0x5 contiki-rm090.a(csma.o)
 *fill*         0x0000000000007127        0x1 00
 .rodata.csma_driver
                0x0000000000007128       0x1a contiki-rm090.a(csma.o)
                0x0000000000007128                csma_driver
 .rodata.CSWTCH.16
                0x0000000000007142        0x2 contiki-rm090.a(frame802154.o)
 .rodata        0x0000000000007144        0x9 contiki-rm090.a(macstats.o)
 .rodata        0x000000000000714d        0x8 contiki-rm090.a(nullrdc.o)
 *fill*         0x0000000000007155        0x1 00
 .rodata.nullrdc_driver
                0x0000000000007156       0x1e contiki-rm090.a(nullrdc.o)
                0x0000000000007156                nullrdc_driver
 .rodata        0x0000000000007174        0x8 contiki-rm090.a(nullsec.o)
 .rodata.nullsec_driver
                0x000000000000717c        0xe contiki-rm090.a(nullsec.o)
                0x000000000000717c                nullsec_driver
 .rodata.vuprintf
                0x000000000000718a        0x7 /opt/msp430-47-expr/bin/../lib/gcc/msp430/4.7.0/../../../../msp430/lib/mcpu-430x/mmpy-16/msr20/mc20/libc.a(vuprintf.o)
 *(.near.rodata .near.rodata.*)
                0x0000000000007192                . = ALIGN (0x2)
                0x0000000000007192                _etext = .

.data           0x0000000000001c00      0x26e load address 0x0000000000007192
                0x0000000000001c00                . = ALIGN (0x2)
                0x0000000000001c00                __data_start = .
 *(.data .data.* .gnu.linkonce.d.*)
 .data.CORAL_latency
                0x0000000000001c00        0xc udp-server.co
                0x0000000000001c00                CORAL_latency
 .data.CORAL_icmp_recv_total_sink
                0x0000000000001c0c        0xc udp-server.co
                0x0000000000001c0c                CORAL_icmp_recv_total_sink
 .data.CORAL_icmp_send_total_sink
                0x0000000000001c18        0xc udp-server.co
                0x0000000000001c18                CORAL_icmp_send_total_sink
 .data.CORAL_udp_recv_total_sink
                0x0000000000001c24        0xc udp-server.co
                0x0000000000001c24                CORAL_udp_recv_total_sink
 .data.CORAL_udp_send_total_sink
                0x0000000000001c30        0xc udp-server.co
                0x0000000000001c30                CORAL_udp_send_total_sink
 .data.CORAL_icmp_recv
                0x0000000000001c3c        0xc udp-server.co
                0x0000000000001c3c                CORAL_icmp_recv
 .data.CORAL_icmp_send
                0x0000000000001c48        0xc udp-server.co
                0x0000000000001c48                CORAL_icmp_send
 .data.CORAL_udp_recv
                0x0000000000001c54        0xc udp-server.co
                0x0000000000001c54                CORAL_udp_recv
 .data.CORAL_udp_send
                0x0000000000001c60        0xc udp-server.co
                0x0000000000001c60                CORAL_udp_send
 .data.IEEE802154_phyCurrentChannel
                0x0000000000001c6c        0xc udp-server.co
                0x0000000000001c6c                IEEE802154_phyCurrentChannel
 .data.IEEE802154_RPL_Imin
                0x0000000000001c78        0xc udp-server.co
                0x0000000000001c78                IEEE802154_RPL_Imin
 .data.CORAL_signal_rssi
                0x0000000000001c84        0xc udp-server.co
                0x0000000000001c84                CORAL_signal_rssi
 .data.IEEE802154_macShortAddress
                0x0000000000001c90        0xc udp-server.co
                0x0000000000001c90                IEEE802154_macShortAddress
 .data.curChannel
                0x0000000000001c9c        0x1 udp-server.co
                0x0000000000001c9c                curChannel
 *fill*         0x0000000000001c9d        0x1 00
 .data.udp_server_process
                0x0000000000001c9e        0xc udp-server.co
                0x0000000000001c9e                udp_server_process
 .data.rtimer_secs
                0x0000000000001caa        0x2 udp-server.co
                0x0000000000001caa                rtimer_secs
 .data.node_id  0x0000000000001cac        0x2 obj_rm090/contiki-rm090-main.o
                0x0000000000001cac                node_id
 .data.serial_control_process
                0x0000000000001cae        0xc contiki-rm090.a(serial-control-)
                0x0000000000001cae                serial_control_process
 .data.sensors  0x0000000000001cba        0x4 contiki-rm090.a(contiki-rm090-p)
                0x0000000000001cba                sensors
 .data.sensors_process
                0x0000000000001cbe        0xc contiki-rm090.a(sensors.o)
                0x0000000000001cbe                sensors_process
 .data.cc2520_process
                0x0000000000001cca        0xc contiki-rm090.a(cc2520.o)
                0x0000000000001cca                cc2520_process
 .data.cur_break
                0x0000000000001cd6        0x2 contiki-rm090.a(msp430.o)
 .data.ctimer_process
                0x0000000000001cd8        0xc contiki-rm090.a(ctimer.o)
                0x0000000000001cd8                ctimer_process
 .data.etimer_process
                0x0000000000001ce4        0xc contiki-rm090.a(etimer.o)
                0x0000000000001ce4                etimer_process
 .data.serial_line_process
                0x0000000000001cf0        0xc contiki-rm090.a(serial-line.o)
                0x0000000000001cf0                serial_line_process
 .data.nbr_routes
                0x0000000000001cfc        0x2 contiki-rm090.a(uip-ds6-route.o)
                0x0000000000001cfc                nbr_routes
 .data.routememb
                0x0000000000001cfe        0x8 contiki-rm090.a(uip-ds6-route.o)
 .data.defaultroutermemb
                0x0000000000001d06        0x8 contiki-rm090.a(uip-ds6-route.o)
 .data.neighborroutememb
                0x0000000000001d0e        0x8 contiki-rm090.a(uip-ds6-route.o)
 .data.nbr_routes_struct
                0x0000000000001d16        0xa contiki-rm090.a(uip-ds6-route.o)
 .data.ds6_neighbors
                0x0000000000001d20        0x2 contiki-rm090.a(uip-ds6-nbr.o)
                0x0000000000001d20                ds6_neighbors
 .data.ds6_neighbors_struct
                0x0000000000001d22        0xa contiki-rm090.a(uip-ds6-nbr.o)
 .data.tcpip_process
                0x0000000000001d2c        0xc contiki-rm090.a(tcpip.o)
                0x0000000000001d2c                tcpip_process
 .data.rpl_default_lifetime
                0x0000000000001d38        0x1 contiki-rm090.a(rpl-control.o)
                0x0000000000001d38                rpl_default_lifetime
 .data.rpl_dio_redundancy
                0x0000000000001d39        0x1 contiki-rm090.a(rpl-control.o)
                0x0000000000001d39                rpl_dio_redundancy
 .data.rpl_dio_interval_doublings
                0x0000000000001d3a        0x1 contiki-rm090.a(rpl-control.o)
                0x0000000000001d3a                rpl_dio_interval_doublings
 .data.rpl_dio_interval_min
                0x0000000000001d3b        0x1 contiki-rm090.a(rpl-control.o)
                0x0000000000001d3b                rpl_dio_interval_min
 .data.rpl_parents
                0x0000000000001d3c        0x2 contiki-rm090.a(rpl-dag.o)
                0x0000000000001d3c                rpl_parents
 .data.rpl_parents_struct
                0x0000000000001d3e        0xa contiki-rm090.a(rpl-dag.o)
 .data.buframmem
                0x0000000000001d48        0x8 contiki-rm090.a(queuebuf.o)
 .data.bufmem   0x0000000000001d50        0x8 contiki-rm090.a(queuebuf.o)
 .data.neighbor_addr_mem
                0x0000000000001d58        0x8 contiki-rm090.a(nbr-table.o)
 .data.link_stats_struct
                0x0000000000001d60        0xa contiki-rm090.a(link-stats.o)
 .data.CSMA_MAX_MAX_FRAME_RETRIES
                0x0000000000001d6a        0x1 contiki-rm090.a(csma.o)
                0x0000000000001d6a                CSMA_MAX_MAX_FRAME_RETRIES
 .data.CSMA_MAX_BACKOFF
                0x0000000000001d6b        0x1 contiki-rm090.a(csma.o)
                0x0000000000001d6b                CSMA_MAX_BACKOFF
 .data.CSMA_MAX_BE
                0x0000000000001d6c        0x1 contiki-rm090.a(csma.o)
                0x0000000000001d6c                CSMA_MAX_BE
 *fill*         0x0000000000001d6d        0x1 00
 .data.CSMA_CW  0x0000000000001d6e        0x4 contiki-rm090.a(csma.o)
                0x0000000000001d6e                CSMA_CW
 .data.neighbor_memb
                0x0000000000001d72        0x8 contiki-rm090.a(csma.o)
 .data.packet_memb
                0x0000000000001d7a        0x8 contiki-rm090.a(csma.o)
 .data.metadata_memb
                0x0000000000001d82        0x8 contiki-rm090.a(csma.o)
 .data.node_address
                0x0000000000001d8a        0xc contiki-rm090.a(csma.o)
 .data.mac_pan_id
                0x0000000000001d96        0x2 contiki-rm090.a(frame802154.o)
 .data.macstats_event_process
                0x0000000000001d98        0xc contiki-rm090.a(macstats.o)
                0x0000000000001d98                macstats_event_process
 .data.IEEE802154_event_macStats
                0x0000000000001da4        0xa contiki-rm090.a(macstats.o)
                0x0000000000001da4                IEEE802154_event_macStats
 .data.event_interval
                0x0000000000001dae        0x4 contiki-rm090.a(macstats.o)
                0x0000000000001dae                event_interval
 .data.base64chars
                0x0000000000001db2       0x41 contiki-rm090.a(base64.o)
                0x0000000000001db2                base64chars
 *fill*         0x0000000000001df3        0x1 00
 .data.echo_request_handler
                0x0000000000001df4        0x8 contiki-rm090.a(uip-icmp6.o)
 .data.echo_reply_handler
                0x0000000000001dfc        0x8 contiki-rm090.a(uip-icmp6.o)
 .data.dao_sequence
                0x0000000000001e04        0x1 contiki-rm090.a(rpl-icmp6.o)
 *fill*         0x0000000000001e05        0x1 00
 .data.dis_handler
                0x0000000000001e06        0x8 contiki-rm090.a(rpl-icmp6.o)
 .data.dio_handler
                0x0000000000001e0e        0x8 contiki-rm090.a(rpl-icmp6.o)
 .data.dao_handler
                0x0000000000001e16        0x8 contiki-rm090.a(rpl-icmp6.o)
 .data.dao_ack_handler
                0x0000000000001e1e        0x8 contiki-rm090.a(rpl-icmp6.o)
 .data.rpl_of0  0x0000000000001e26       0x22 contiki-rm090.a(rpl-of0.o)
                0x0000000000001e26                rpl_of0
 .data.rpl_mrhof
                0x0000000000001e48       0x22 contiki-rm090.a(rpl-mrhof.o)
                0x0000000000001e48                rpl_mrhof
 .data.next     0x0000000000001e6a        0x4 /opt/msp430-47-expr/bin/../lib/gcc/msp430/4.7.0/../../../../msp430/lib/mcpu-430x/mmpy-16/msr20/mc20/libc.a(rand.o)
 *(.near.data .near.data.*)
                0x0000000000001e6e                . = ALIGN (0x2)
                0x0000000000001e6e                _edata = .
                0x0000000000007192                __data_load_start = LOADADDR (.data)
                0x000000000000026e                __data_size = SIZEOF (.data)

.bss            0x0000000000001e6e     0x1e1e load address 0x0000000000007400
                0x0000000000001e6e                __bss_start = .
 *(.bss .bss.*)
 .bss.rc        0x0000000000001e6e        0x2 udp-server.co
                0x0000000000001e6e                rc
 .bss.sc        0x0000000000001e70        0x2 udp-server.co
                0x0000000000001e70                sc
 .bss.sd        0x0000000000001e72        0x2 udp-server.co
                0x0000000000001e72                sd
 .bss.myaddress
                0x0000000000001e74        0x1 udp-server.co
                0x0000000000001e74                myaddress
 .bss.rssi      0x0000000000001e75        0x1 udp-server.co
                0x0000000000001e75                rssi
 .bss.SD        0x0000000000001e76       0x1e udp-server.co
 .bss.RD        0x0000000000001e94       0x1e udp-server.co
 .bss.SC        0x0000000000001eb2       0x1e udp-server.co
 .bss.RC        0x0000000000001ed0       0x1e udp-server.co
 .bss.server_conn
                0x0000000000001eee        0x2 udp-server.co
 .bss.TT        0x0000000000001ef0       0x1e udp-server.co
 .bss.irq_energest.4734
                0x0000000000001f0e        0x4 obj_rm090/contiki-rm090-main.o
 .bss.timer_ctimer
                0x0000000000001f12       0x16 contiki-rm090.a(param-repo.o)
 .bss.transaction_in_progress
                0x0000000000001f28        0x2 contiki-rm090.a(serial-control-)
                0x0000000000001f28                transaction_in_progress
 .bss.transmitting
                0x0000000000001f2a        0x1 contiki-rm090.a(uart1.o)
 *fill*         0x0000000000001f2b        0x1 00
 .bss.uart1_input_handler
                0x0000000000001f2c        0x4 contiki-rm090.a(uart1.o)
 .bss.num_sensors
                0x0000000000001f30        0x1 contiki-rm090.a(sensors.o)
 *fill*         0x0000000000001f31        0x1 00
 .bss.i.2756    0x0000000000001f32        0x2 contiki-rm090.a(sensors.o)
 .bss.events.2757
                0x0000000000001f34        0x2 contiki-rm090.a(sensors.o)
 .bss.debouncetimer
                0x0000000000001f36        0x8 contiki-rm090.a(button-sensor.o)
 .bss.last_packet_timestamp
                0x0000000000001f3e        0x2 contiki-rm090.a(cc2520.o)
 .bss.receive_on
                0x0000000000001f40        0x1 contiki-rm090.a(cc2520.o)
 .bss.locked    0x0000000000001f41        0x1 contiki-rm090.a(cc2520.o)
 .bss.lock_off  0x0000000000001f42        0x1 contiki-rm090.a(cc2520.o)
 .bss.lock_on   0x0000000000001f43        0x1 contiki-rm090.a(cc2520.o)
 .bss.channel   0x0000000000001f44        0x2 contiki-rm090.a(cc2520.o)
 .bss.last_tar  0x0000000000001f46        0x2 contiki-rm090.a(clock.o)
 .bss.count     0x0000000000001f48        0x4 contiki-rm090.a(clock.o)
 .bss.usecs     0x0000000000001f4c        0x4 contiki-rm090.a(clock.o)
 .bss.seconds   0x0000000000001f50        0x4 contiki-rm090.a(clock.o)
 .bss.leds      0x0000000000001f54        0x1 contiki-rm090.a(leds.o)
 *fill*         0x0000000000001f55        0x1 00
 .bss.counter   0x0000000000001f56        0x2 contiki-rm090.a(watchdog.o)
 .bss.initialized
                0x0000000000001f58        0x1 contiki-rm090.a(ctimer.o)
 *fill*         0x0000000000001f59        0x1 00
 .bss.ctimer_list_list
                0x0000000000001f5a        0x2 contiki-rm090.a(ctimer.o)
 .bss.timerlist
                0x0000000000001f5c        0x2 contiki-rm090.a(etimer.o)
 .bss.next_expiration
                0x0000000000001f5e        0x4 contiki-rm090.a(etimer.o)
 .bss.poll_requested
                0x0000000000001f62        0x1 contiki-rm090.a(process.o)
 *fill*         0x0000000000001f63        0x1 00
 .bss.process_current
                0x0000000000001f64        0x2 contiki-rm090.a(process.o)
                0x0000000000001f64                process_current
 .bss.process_list
                0x0000000000001f66        0x2 contiki-rm090.a(process.o)
                0x0000000000001f66                process_list
 .bss.lastevent
                0x0000000000001f68        0x1 contiki-rm090.a(process.o)
 .bss.fevent    0x0000000000001f69        0x1 contiki-rm090.a(process.o)
 .bss.nevents   0x0000000000001f6a        0x1 contiki-rm090.a(process.o)
 *fill*         0x0000000000001f6b        0x1 00
 .bss.events    0x0000000000001f6c       0x30 contiki-rm090.a(process.o)
 .bss.next_rtimer
                0x0000000000001f9c        0x2 contiki-rm090.a(rtimer.o)
 .bss.overflow.2734
                0x0000000000001f9e        0x1 contiki-rm090.a(serial-line.o)
 *fill*         0x0000000000001f9f        0x1 00
 .bss.rxbuf     0x0000000000001fa0        0x6 contiki-rm090.a(serial-line.o)
 .bss.ptr.2741  0x0000000000001fa6        0x2 contiki-rm090.a(serial-line.o)
 .bss.buf.2740  0x0000000000001fa8       0x80 contiki-rm090.a(serial-line.o)
 .bss.rxbuf_data
                0x0000000000002028       0x80 contiki-rm090.a(serial-line.o)
 .bss.loc_fipaddr
                0x00000000000020a8       0x10 contiki-rm090.a(uip-ds6.o)
 .bss.locaddr   0x00000000000020b8        0x2 contiki-rm090.a(uip-ds6.o)
 .bss.locprefix
                0x00000000000020ba        0x2 contiki-rm090.a(uip-ds6.o)
 .bss.locmaddr  0x00000000000020bc        0x2 contiki-rm090.a(uip-ds6.o)
 .bss.notificationlist_list
                0x00000000000020be        0x2 contiki-rm090.a(uip-ds6-route.o)
 .bss.defaultrouterlist_list
                0x00000000000020c0        0x2 contiki-rm090.a(uip-ds6-route.o)
 .bss.routelist_list
                0x00000000000020c2        0x2 contiki-rm090.a(uip-ds6-route.o)
 .bss.num_routes
                0x00000000000020c4        0x2 contiki-rm090.a(uip-ds6-route.o)
 .bss.routememb_memb_count
                0x00000000000020c6        0xa contiki-rm090.a(uip-ds6-route.o)
 .bss.routememb_memb_mem
                0x00000000000020d0      0x140 contiki-rm090.a(uip-ds6-route.o)
 .bss.defaultroutermemb_memb_count
                0x0000000000002210        0x2 contiki-rm090.a(uip-ds6-route.o)
 .bss.defaultroutermemb_memb_mem
                0x0000000000002212       0x38 contiki-rm090.a(uip-ds6-route.o)
 .bss.neighborroutememb_memb_count
                0x000000000000224a        0xa contiki-rm090.a(uip-ds6-route.o)
 .bss.neighborroutememb_memb_mem
                0x0000000000002254       0x28 contiki-rm090.a(uip-ds6-route.o)
 .bss._nbr_routes_mem
                0x000000000000227c       0x28 contiki-rm090.a(uip-ds6-route.o)
 .bss.uip_ext_opt_offset
                0x00000000000022a4        0x1 contiki-rm090.a(uip6.o)
                0x00000000000022a4                uip_ext_opt_offset
 .bss.uip_ext_len
                0x00000000000022a5        0x1 contiki-rm090.a(uip6.o)
                0x00000000000022a5                uip_ext_len
 .bss.uip_ext_bitmap
                0x00000000000022a6        0x1 contiki-rm090.a(uip6.o)
                0x00000000000022a6                uip_ext_bitmap
 *fill*         0x00000000000022a7        0x1 00
 .bss.lastport  0x00000000000022a8        0x2 contiki-rm090.a(uip6.o)
 .bss.iss       0x00000000000022aa        0x4 contiki-rm090.a(uip6.o)
 .bss._ds6_neighbors_mem
                0x00000000000022ae       0xb4 contiki-rm090.a(uip-ds6-nbr.o)
 .bss.callback  0x0000000000002362        0x2 contiki-rm090.a(sicslowpan.o)
 .bss.addr_contexts
                0x0000000000002364       0x14 contiki-rm090.a(sicslowpan.o)
 .bss.uncomp_hdr_len
                0x0000000000002378        0x1 contiki-rm090.a(sicslowpan.o)
 .bss.packetbuf_hdr_len
                0x0000000000002379        0x1 contiki-rm090.a(sicslowpan.o)
 .bss.packetbuf_ptr
                0x000000000000237a        0x2 contiki-rm090.a(sicslowpan.o)
 .bss.last_tx_status
                0x000000000000237c        0x2 contiki-rm090.a(sicslowpan.o)
 .bss.my_tag    0x000000000000237e        0x2 contiki-rm090.a(sicslowpan.o)
 .bss.packetbuf_payload_len
                0x0000000000002380        0x2 contiki-rm090.a(sicslowpan.o)
 .bss.hc06_ptr  0x0000000000002382        0x2 contiki-rm090.a(sicslowpan.o)
 .bss.context   0x0000000000002384        0x2 contiki-rm090.a(sicslowpan.o)
 .bss.last_rssi
                0x0000000000002386        0x2 contiki-rm090.a(sicslowpan.o)
 .bss.frag_info
                0x0000000000002388      0x168 contiki-rm090.a(sicslowpan.o)
 .bss.frag_buf  0x00000000000024f0      0x558 contiki-rm090.a(sicslowpan.o)
 .bss.outputfunc
                0x0000000000002a48        0x4 contiki-rm090.a(tcpip.o)
 .bss.s         0x0000000000002a4c       0x22 contiki-rm090.a(tcpip.o)
 .bss.periodic  0x0000000000002a6e        0xc contiki-rm090.a(tcpip.o)
 .bss.mode      0x0000000000002a7a        0x2 contiki-rm090.a(rpl.o)
 .bss._rpl_parents_mem
                0x0000000000002a7c       0x3c contiki-rm090.a(rpl-dag.o)
 .bss.buframmem_memb_count
                0x0000000000002ab8        0x8 contiki-rm090.a(queuebuf.o)
 .bss.buframmem_memb_mem
                0x0000000000002ac0      0x580 contiki-rm090.a(queuebuf.o)
 .bss.bufmem_memb_count
                0x0000000000003040        0x8 contiki-rm090.a(queuebuf.o)
 .bss.bufmem_memb_mem
                0x0000000000003048       0x10 contiki-rm090.a(queuebuf.o)
 .bss.num_tables
                0x0000000000003058        0x2 contiki-rm090.a(nbr-table.o)
 .bss.all_tables
                0x000000000000305a       0x10 contiki-rm090.a(nbr-table.o)
 .bss.used_map  0x000000000000306a        0xa contiki-rm090.a(nbr-table.o)
 .bss.nbr_table_keys_list
                0x0000000000003074        0x2 contiki-rm090.a(nbr-table.o)
 .bss.locked_map
                0x0000000000003076        0xa contiki-rm090.a(nbr-table.o)
 .bss.neighbor_addr_mem_memb_count
                0x0000000000003080        0xa contiki-rm090.a(nbr-table.o)
 .bss.neighbor_addr_mem_memb_mem
                0x000000000000308a       0x64 contiki-rm090.a(nbr-table.o)
 .bss.bufptr    0x00000000000030ee        0x2 contiki-rm090.a(packetbuf.o)
 .bss.buflen    0x00000000000030f0        0x2 contiki-rm090.a(packetbuf.o)
 .bss.hdrlen    0x00000000000030f2        0x1 contiki-rm090.a(packetbuf.o)
 *fill*         0x00000000000030f3        0x1 00
 .bss.packetbuf_aligned
                0x00000000000030f4       0x80 contiki-rm090.a(packetbuf.o)
 .bss._link_stats_mem
                0x0000000000003174       0x64 contiki-rm090.a(link-stats.o)
 .bss.initialized
                0x00000000000031d8        0x1 contiki-rm090.a(framer-802154.o)
 .bss.mac_dsn   0x00000000000031d9        0x1 contiki-rm090.a(framer-802154.o)
 .bss.CSMA_MIN_BE
                0x00000000000031da        0x1 contiki-rm090.a(csma.o)
                0x00000000000031da                CSMA_MIN_BE
 .bss.backoff_algorithm
                0x00000000000031db        0x1 contiki-rm090.a(csma.o)
                0x00000000000031db                backoff_algorithm
 .bss.prevTimestamp
                0x00000000000031dc        0x4 contiki-rm090.a(csma.o)
                0x00000000000031dc                prevTimestamp
 .bss.initialized.3700
                0x00000000000031e0        0x1 contiki-rm090.a(csma.o)
 *fill*         0x00000000000031e1        0x1 00
 .bss.seqno.3701
                0x00000000000031e2        0x2 contiki-rm090.a(csma.o)
 .bss.neighbor_list_list
                0x00000000000031e4        0x2 contiki-rm090.a(csma.o)
 .bss.nodeAddr  0x00000000000031e6        0x2 contiki-rm090.a(csma.o)
 .bss.neighbor_memb_memb_count
                0x00000000000031e8        0x2 contiki-rm090.a(csma.o)
 .bss.neighbor_memb_memb_mem
                0x00000000000031ea       0x4c contiki-rm090.a(csma.o)
 .bss.packet_memb_memb_count
                0x0000000000003236        0x8 contiki-rm090.a(csma.o)
 .bss.packet_memb_memb_mem
                0x000000000000323e       0x30 contiki-rm090.a(csma.o)
 .bss.metadata_memb_memb_count
                0x000000000000326e        0x8 contiki-rm090.a(csma.o)
 .bss.metadata_memb_memb_mem
                0x0000000000003276       0x40 contiki-rm090.a(csma.o)
 .bss.report_counter
                0x00000000000032b6        0x4 contiki-rm090.a(macstats.o)
                0x00000000000032b6                report_counter
 .bss.num_events
                0x00000000000032ba        0x1 contiki-rm090.a(macstats.o)
                0x00000000000032ba                num_events
 .bss.is_pauzed
                0x00000000000032bb        0x1 contiki-rm090.a(macstats.o)
                0x00000000000032bb                is_pauzed
 .bss.et.2697   0x00000000000032bc        0xc contiki-rm090.a(macstats.o)
 .bss.input_handler_list_list
                0x00000000000032c8        0x2 contiki-rm090.a(uip-icmp6.o)
 .bss.tmp_ipaddr
                0x00000000000032ca       0x10 contiki-rm090.a(uip-icmp6.o)
 .bss.echo_reply_callback_list_list
                0x00000000000032da        0x2 contiki-rm090.a(uip-icmp6.o)
 .bss.next_dis  0x00000000000032dc        0x2 contiki-rm090.a(rpl-timers.o)
 .bss.periodic_timer
                0x00000000000032de       0x16 contiki-rm090.a(rpl-timers.o)
 .bss.dio_send_ok
                0x00000000000032f4        0x1 contiki-rm090.a(rpl-timers.o)
 *fill*         0x00000000000032f5        0x1 00
 .bss.num_children
                0x00000000000032f6        0x2 contiki-rm090.a(rpl-nbr-policy.)
 .bss.worst_rank_nbr
                0x00000000000032f8        0x2 contiki-rm090.a(rpl-nbr-policy.)
 .bss.timer_init
                0x00000000000032fa        0x2 contiki-rm090.a(rpl-nbr-policy.)
 .bss.periodic_timer
                0x00000000000032fc       0x16 contiki-rm090.a(rpl-nbr-policy.)
 .bss.worst_rank
                0x0000000000003312        0x2 contiki-rm090.a(rpl-nbr-policy.)
 .bss.num_parents
                0x0000000000003314        0x2 contiki-rm090.a(rpl-nbr-policy.)
 .bss.num_free  0x0000000000003316        0x2 contiki-rm090.a(rpl-nbr-policy.)
 .bss.received_seqnos
                0x0000000000003318       0xe0 contiki-rm090.a(mac-sequence.o)
 *(.near.bss .near.bss.*)
 *(COMMON)
 COMMON         0x00000000000033f8       0xcc contiki-rm090.a(param-repo.o)
                0x00000000000033f8                params
                0x00000000000034c0                events
 COMMON         0x00000000000034c4      0x16e contiki-rm090.a(serial-control-)
                0x00000000000034c4                args
                0x00000000000034d2                rx_buffer
                0x0000000000003552                tx_buffer
                0x00000000000035b2                collect_buffer
 COMMON         0x0000000000003632        0x2 contiki-rm090.a(contiki-rm090-p)
                0x0000000000003632                sensors_flags
 COMMON         0x0000000000003634        0x1 contiki-rm090.a(sensors.o)
                0x0000000000003634                sensors_event
 *fill*         0x0000000000003635        0x1 00
 COMMON         0x0000000000003636       0x13 contiki-rm090.a(cc2520.o)
                0x0000000000003636                cc2520_sfd_counter
                0x0000000000003638                cc2520_sfd_start_time
                0x000000000000363a                cc2520_sfd_end_time
                0x000000000000363c                cc2520_time_of_departure
                0x000000000000363e                cc2520_packets_seen
                0x0000000000003640                cc2520_packets_read
                0x0000000000003642                cc2520_last_rssi
                0x0000000000003644                cc2520_time_of_arrival
                0x0000000000003646                cc2520_authority_level_of_sender
                0x0000000000003648                cc2520_last_correlation
 *fill*         0x0000000000003649        0x1 00
 COMMON         0x000000000000364a        0x2 contiki-rm090.a(msp430.o)
                0x000000000000364a                msp430_dco_required
 COMMON         0x000000000000364c        0x1 contiki-rm090.a(process.o)
                0x000000000000364c                process_maxevents
 COMMON         0x000000000000364d        0x1 contiki-rm090.a(serial-line.o)
                0x000000000000364d                serial_line_event_message
 COMMON         0x000000000000364e      0x15c contiki-rm090.a(uip-ds6.o)
                0x000000000000364e                uip_ds6_timer_ra
                0x0000000000003656                uip_ds6_if
                0x0000000000003742                uip_ds6_netif_addr_list_offset
                0x0000000000003743                uip_ds6_addr_size
                0x0000000000003744                uip_ds6_prefix_list
                0x000000000000379e                uip_ds6_timer_periodic
 COMMON         0x00000000000037aa      0x342 contiki-rm090.a(uip6.o)
                0x00000000000037aa                uip_len
                0x00000000000037ac                uip_sappdata
                0x00000000000037ae                uip_acc32
                0x00000000000037b2                uip_lladdr
                0x00000000000037ba                uip_aligned_buf
                0x00000000000038aa                uip_flags
                0x00000000000038ac                uip_next_hdr
                0x00000000000038ae                uip_udp_conn
                0x00000000000038b0                uip_appdata
                0x00000000000038b2                uip_conn
                0x00000000000038b4                uip_conns
                0x0000000000003964                uip_listenports
                0x0000000000003974                uip_stat
                0x00000000000039b2                uip_slen
                0x00000000000039b4                uip_udp_conns
 COMMON         0x0000000000003aec        0x1 contiki-rm090.a(tcpip.o)
                0x0000000000003aec                tcpip_event
 *fill*         0x0000000000003aed        0x1 00
 COMMON         0x0000000000003aee       0x14 contiki-rm090.a(rpl.o)
                0x0000000000003aee                rpl_stats
 COMMON         0x0000000000003b02      0x110 contiki-rm090.a(rpl-dag.o)
                0x0000000000003b02                default_instance
                0x0000000000003b04                instance_table
 COMMON         0x0000000000003c12       0x2e contiki-rm090.a(packetbuf.o)
                0x0000000000003c12                packetbuf_addrs
                0x0000000000003c22                packetbuf_attrs
 COMMON         0x0000000000003c40        0x8 contiki-rm090.a(linkaddr.o)
                0x0000000000003c40                linkaddr_node_addr
 COMMON         0x0000000000003c48       0x16 contiki-rm090.a(link-stats.o)
                0x0000000000003c48                periodic_timer
 COMMON         0x0000000000003c5e       0x2c contiki-rm090.a(csma.o)
                0x0000000000003c5e                stats
 COMMON         0x0000000000003c8a        0x2 /opt/msp430-47-expr/bin/../lib/gcc/msp430/4.7.0/../../../../msp430/lib/mcpu-430x/mmpy-16/msr20/mc20/libc.a(errno.o)
                0x0000000000003c8a                errno
                0x0000000000003c8c                . = ALIGN (0x2)
                0x0000000000003c8c                __bss_end = .
                0x0000000000001e1e                __bss_size = SIZEOF (.bss)

.noinit         0x0000000000003c8c        0x2 load address 0x0000000000007400
                0x0000000000003c8c                . = ALIGN (0x2)
                0x0000000000003c8c                __noinit_start = .
 *(.noinit .noinit.*)
 .noinit.crt0   0x0000000000003c8c        0x2 /opt/msp430-47-expr/bin/../lib/gcc/msp430/4.7.0/mcpu-430x/mmpy-16/msr20/mc20/libcrt0.a(__watchdog_support.o)
                0x0000000000003c8c                __wdt_clear_value
                0x0000000000003c8e                . = ALIGN (0x2)
                0x0000000000003c8e                __noinit_end = .
                0x0000000000003c8e                . = ALIGN (0x2)
                0x0000000000003c8e                _end = .

.infomem        0x0000000000001800        0x0
                0x0000000000001800                . = ALIGN (0x2)
 *(.infomem .infomem.*)

.infomemnobits  0x0000000000001800        0x0
                0x0000000000001800                . = ALIGN (0x2)
 *(.infomemnobits .infomemnobits.*)

.infoa          0x0000000000001980        0x0
                0x0000000000001980                . = ALIGN (0x2)
 *(.infoa .infoa.*)

.infob          0x0000000000001900        0x0
                0x0000000000001900                . = ALIGN (0x2)
 *(.infob .infob.*)

.infoc          0x0000000000001880        0x0
                0x0000000000001880                . = ALIGN (0x2)
 *(.infoc .infoc.*)

.infod          0x0000000000001800        0x0
                0x0000000000001800                . = ALIGN (0x2)
 *(.infod .infod.*)
                0x000000000000ffff                PROVIDE (__vte_0, 0xffff)
                0x000000000000ffff                PROVIDE (__vte_1, 0xffff)
                0x000000000000ffff                PROVIDE (__vte_2, 0xffff)
                0x000000000000ffff                PROVIDE (__vte_3, 0xffff)
                0x000000000000ffff                PROVIDE (__vte_4, 0xffff)
                0x000000000000ffff                PROVIDE (__vte_5, 0xffff)
                0x000000000000ffff                PROVIDE (__vte_6, 0xffff)
                0x000000000000ffff                PROVIDE (__vte_7, 0xffff)
                0x000000000000ffff                PROVIDE (__vte_8, 0xffff)
                0x000000000000ffff                PROVIDE (__vte_9, 0xffff)
                0x000000000000ffff                PROVIDE (__vte_10, 0xffff)
                0x000000000000ffff                PROVIDE (__vte_11, 0xffff)
                0x000000000000ffff                PROVIDE (__vte_12, 0xffff)
                0x000000000000ffff                PROVIDE (__vte_13, 0xffff)
                0x000000000000ffff                PROVIDE (__vte_14, 0xffff)
                0x000000000000ffff                PROVIDE (__vte_15, 0xffff)
                0x000000000000ffff                PROVIDE (__vte_16, 0xffff)
                0x000000000000ffff                PROVIDE (__vte_17, 0xffff)
                0x000000000000ffff                PROVIDE (__vte_18, 0xffff)
                0x000000000000ffff                PROVIDE (__vte_19, 0xffff)
                0x000000000000ffff                PROVIDE (__vte_20, 0xffff)
                0x000000000000ffff                PROVIDE (__vte_21, 0xffff)
                0x000000000000ffff                PROVIDE (__vte_22, 0xffff)
                0x000000000000ffff                PROVIDE (__vte_23, 0xffff)
                0x000000000000ffff                PROVIDE (__vte_24, 0xffff)
                0x000000000000ffff                PROVIDE (__vte_25, 0xffff)
                0x000000000000ffff                PROVIDE (__vte_26, 0xffff)
                0x000000000000ffff                PROVIDE (__vte_27, 0xffff)
                0x000000000000ffff                PROVIDE (__vte_28, 0xffff)
                0x000000000000ffff                PROVIDE (__vte_29, 0xffff)
                0x000000000000ffff                PROVIDE (__vte_30, 0xffff)
                0x000000000000ffff                PROVIDE (__vte_31, 0xffff)

.vectors        0x000000000000ff80       0x80
                0x000000000000ff80                __vectors_start = .
 *(.vectors*)
 .vectors       0x000000000000ff80       0x80 /opt/msp430-47-expr/bin/../lib/gcc/msp430/4.7.0/mcpu-430x/mmpy-16/msr20/mc20/crt0ivtbl64.o
                0x000000000000ff80                __ivtbl_64
                0x0000000000010000                _vectors_end = .

.fartext        0x0000000000010000        0x0
                0x0000000000010000                . = ALIGN (0x2)
 *(.fartext .fartext.*)

.far.text       0x0000000000010000     0x9cea
                0x0000000000010000                . = ALIGN (0x2)
 *(.far.text .far.text.*)
 .far.text.getParameter
                0x0000000000010000      0x10e udp-server.co
 .far.text.setParameter
                0x000000000001010e       0x22 udp-server.co
 .far.text.getfromjson
                0x0000000000010130       0x8a udp-server.co
                0x0000000000010130                getfromjson
 .far.text.process_thread_udp_server_process
                0x00000000000101ba      0x2fc udp-server.co
 .far.text.stop_event
                0x00000000000104b6       0x10 contiki-rm090.a(param-repo.o)
 .far.text.param_repo_init
                0x00000000000104c6       0x10 contiki-rm090.a(param-repo.o)
                0x00000000000104c6                param_repo_init
 .far.text.param_repo_get_parameter
                0x00000000000104d6       0x18 contiki-rm090.a(param-repo.o)
                0x00000000000104d6                param_repo_get_parameter
 .far.text.param_repo_add_parameter
                0x00000000000104ee       0x20 contiki-rm090.a(param-repo.o)
                0x00000000000104ee                param_repo_add_parameter
 .far.text.param_repo_add_event
                0x000000000001050e       0x20 contiki-rm090.a(param-repo.o)
                0x000000000001050e                param_repo_add_event
 .far.text.param_repo_register_eventlistener
                0x000000000001052e       0x46 contiki-rm090.a(param-repo.o)
                0x000000000001052e                param_repo_register_eventlistener
 .far.text.send_serial_response.constprop.1
                0x0000000000010574      0x106 contiki-rm090.a(serial-control-)
 .far.text.event_listener
                0x000000000001067a       0x7a contiki-rm090.a(serial-control-)
                0x000000000001067a                event_listener
 .far.text.check_serial_header
                0x00000000000106f4       0x1c contiki-rm090.a(serial-control-)
                0x00000000000106f4                check_serial_header
 .far.text.send_error_message
                0x0000000000010710       0x28 contiki-rm090.a(serial-control-)
                0x0000000000010710                send_error_message
 .far.text.process_thread_serial_control_process
                0x0000000000010738      0x278 contiki-rm090.a(serial-control-)
 .far.text.serial_control_interface_init
                0x00000000000109b0       0x14 contiki-rm090.a(serial-control-)
                0x00000000000109b0                serial_control_interface_init
 .far.text.init_platform
                0x00000000000109c4       0x20 contiki-rm090.a(contiki-rm090-p)
                0x00000000000109c4                init_platform
 .far.text.uart1_active
                0x00000000000109e4        0xe contiki-rm090.a(uart1.o)
                0x00000000000109e4                uart1_active
 .far.text.uart1_set_input
                0x00000000000109f2        0x6 contiki-rm090.a(uart1.o)
                0x00000000000109f2                uart1_set_input
 .far.text.uart1_writeb
                0x00000000000109f8       0x16 contiki-rm090.a(uart1.o)
                0x00000000000109f8                uart1_writeb
 .far.text.uart1_init
                0x0000000000010a0e       0x74 contiki-rm090.a(uart1.o)
                0x0000000000010a0e                uart1_init
 .far.text.putchar
                0x0000000000010a82       0x10 contiki-rm090.a(uart1-putchar.o)
                0x0000000000010a82                putchar
 .far.text.process_thread_sensors_process
                0x0000000000010a92       0xc2 contiki-rm090.a(sensors.o)
 .far.text.status
                0x0000000000010b54       0x18 contiki-rm090.a(button-sensor.o)
 .far.text.value
                0x0000000000010b6c       0x20 contiki-rm090.a(button-sensor.o)
 .far.text.configure
                0x0000000000010b8c       0x58 contiki-rm090.a(button-sensor.o)
 .far.text.value
                0x0000000000010be4       0x12 contiki-rm090.a(radio-sensor.o)
 .far.text.configure
                0x0000000000010bf6        0x4 contiki-rm090.a(radio-sensor.o)
 .far.text.status
                0x0000000000010bfa        0x4 contiki-rm090.a(radio-sensor.o)
 .far.text.get_value
                0x0000000000010bfe       0x4a contiki-rm090.a(cc2520.o)
 .far.text.get_object
                0x0000000000010c48        0x4 contiki-rm090.a(cc2520.o)
 .far.text.set_object
                0x0000000000010c4c        0x4 contiki-rm090.a(cc2520.o)
 .far.text.cc2520_receiving_packet
                0x0000000000010c50        0x8 contiki-rm090.a(cc2520.o)
 .far.text.pending_packet
                0x0000000000010c58        0xe contiki-rm090.a(cc2520.o)
 .far.text.status
                0x0000000000010c66       0x52 contiki-rm090.a(cc2520.o)
 .far.text.strobe
                0x0000000000010cb8       0x4e contiki-rm090.a(cc2520.o)
 .far.text.on   0x0000000000010d06       0x3a contiki-rm090.a(cc2520.o)
 .far.text.flushrx
                0x0000000000010d40       0xf2 contiki-rm090.a(cc2520.o)
 .far.text.off  0x0000000000010e32       0x44 contiki-rm090.a(cc2520.o)
 .far.text.RELEASE_LOCK
                0x0000000000010e76       0x28 contiki-rm090.a(cc2520.o)
 .far.text.getrxdata
                0x0000000000010e9e       0x7e contiki-rm090.a(cc2520.o)
 .far.text.setreg
                0x0000000000010f1c       0x6e contiki-rm090.a(cc2520.o)
 .far.text.cc2520_prepare
                0x0000000000010f8a       0xde contiki-rm090.a(cc2520.o)
 .far.text.getreg
                0x0000000000011068       0x7c contiki-rm090.a(cc2520.o)
 .far.text.cc2520_on
                0x00000000000110e4       0x22 contiki-rm090.a(cc2520.o)
                0x00000000000110e4                cc2520_on
 .far.text.cc2520_off
                0x0000000000011106       0x30 contiki-rm090.a(cc2520.o)
                0x0000000000011106                cc2520_off
 .far.text.cc2520_cca
                0x0000000000011136       0x76 contiki-rm090.a(cc2520.o)
 .far.text.cc2520_read
                0x00000000000111ac      0x102 contiki-rm090.a(cc2520.o)
 .far.text.process_thread_cc2520_process
                0x00000000000112ae       0x54 contiki-rm090.a(cc2520.o)
 .far.text.cc2520_set_channel
                0x0000000000011302       0x78 contiki-rm090.a(cc2520.o)
                0x0000000000011302                cc2520_set_channel
 .far.text.set_value
                0x000000000001137a       0x3c contiki-rm090.a(cc2520.o)
 .far.text.cc2520_set_pan_addr
                0x00000000000113b6      0x1aa contiki-rm090.a(cc2520.o)
                0x00000000000113b6                cc2520_set_pan_addr
 .far.text.cc2520_init
                0x0000000000011560      0x196 contiki-rm090.a(cc2520.o)
                0x0000000000011560                cc2520_init
 .far.text.cc2520_interrupt
                0x00000000000116f6       0x1c contiki-rm090.a(cc2520.o)
                0x00000000000116f6                cc2520_interrupt
 .far.text.cc2520_get_txpower
                0x0000000000011712       0x1a contiki-rm090.a(cc2520.o)
                0x0000000000011712                cc2520_get_txpower
 .far.text.cc2520_transmit
                0x000000000001172c       0xcc contiki-rm090.a(cc2520.o)
 .far.text.cc2520_send
                0x00000000000117f8       0x12 contiki-rm090.a(cc2520.o)
 .far.text.cc2520_arch_init
                0x000000000001180a       0x4a contiki-rm090.a(cc2520-arch.o)
                0x000000000001180a                cc2520_arch_init
 .far.text.msp430_init_dco
                0x0000000000011854       0xca contiki-rm090.a(msp430.o)
                0x0000000000011854                msp430_init_dco
 .far.text.msp430_cpu_init
                0x000000000001191e       0x92 contiki-rm090.a(msp430.o)
                0x000000000001191e                msp430_cpu_init
 .far.text.splhigh_
                0x00000000000119b0        0x8 contiki-rm090.a(msp430.o)
                0x00000000000119b0                splhigh_
 .far.text.clock_time
                0x00000000000119b8       0x1a contiki-rm090.a(clock.o)
                0x00000000000119b8                clock_time
 .far.text.clock_init
                0x00000000000119d2       0x28 contiki-rm090.a(clock.o)
                0x00000000000119d2                clock_init
 .far.text.clock_delay
                0x00000000000119fa        0xc contiki-rm090.a(clock.o)
                0x00000000000119fa                clock_delay
 .far.text.clock_wait
                0x0000000000011a06       0x24 contiki-rm090.a(clock.o)
                0x0000000000011a06                clock_wait
 .far.text.clock_seconds
                0x0000000000011a2a       0x1a contiki-rm090.a(clock.o)
                0x0000000000011a2a                clock_seconds
 .far.text.clock_usec
                0x0000000000011a44       0x1a contiki-rm090.a(clock.o)
                0x0000000000011a44                clock_usec
 .far.text.leds_init
                0x0000000000011a5e        0xa contiki-rm090.a(leds.o)
                0x0000000000011a5e                leds_init
 .far.text.leds_toggle
                0x0000000000011a68        0xe contiki-rm090.a(leds.o)
                0x0000000000011a68                leds_toggle
 .far.text.leds_arch_init
                0x0000000000011a76        0xe contiki-rm090.a(leds-arch.o)
                0x0000000000011a76                leds_arch_init
 .far.text.leds_arch_set
                0x0000000000011a84       0x48 contiki-rm090.a(leds-arch.o)
                0x0000000000011a84                leds_arch_set
 .far.text.watchdog_start
                0x0000000000011acc       0x14 contiki-rm090.a(watchdog.o)
                0x0000000000011acc                watchdog_start
 .far.text.watchdog_periodic
                0x0000000000011ae0       0x12 contiki-rm090.a(watchdog.o)
                0x0000000000011ae0                watchdog_periodic
 .far.text.watchdog_stop
                0x0000000000011af2       0x16 contiki-rm090.a(watchdog.o)
                0x0000000000011af2                watchdog_stop
 .far.text.watchdog_init
                0x0000000000011b08       0x12 contiki-rm090.a(watchdog.o)
                0x0000000000011b08                watchdog_init
 .far.text.rtimer_arch_init
                0x0000000000011b1a        0xe contiki-rm090.a(rtimer-arch.o)
                0x0000000000011b1a                rtimer_arch_init
 .far.text.rtimer_arch_now
                0x0000000000011b28        0xe contiki-rm090.a(rtimer-arch.o)
                0x0000000000011b28                rtimer_arch_now
 .far.text.rtimer_arch_schedule
                0x0000000000011b36        0x6 contiki-rm090.a(rtimer-arch.o)
                0x0000000000011b36                rtimer_arch_schedule
 .far.text.process_thread_ctimer_process
                0x0000000000011b3c       0xa0 contiki-rm090.a(ctimer.o)
 .far.text.ctimer_init
                0x0000000000011bdc       0x18 contiki-rm090.a(ctimer.o)
                0x0000000000011bdc                ctimer_init
 .far.text.ctimer_set_with_process
                0x0000000000011bf4       0x4a contiki-rm090.a(ctimer.o)
                0x0000000000011bf4                ctimer_set_with_process
 .far.text.ctimer_set
                0x0000000000011c3e       0x10 contiki-rm090.a(ctimer.o)
                0x0000000000011c3e                ctimer_set
 .far.text.ctimer_reset
                0x0000000000011c4e       0x2c contiki-rm090.a(ctimer.o)
                0x0000000000011c4e                ctimer_reset
 .far.text.ctimer_restart
                0x0000000000011c7a       0x2c contiki-rm090.a(ctimer.o)
                0x0000000000011c7a                ctimer_restart
 .far.text.ctimer_stop
                0x0000000000011ca6       0x28 contiki-rm090.a(ctimer.o)
                0x0000000000011ca6                ctimer_stop
 .far.text.autostart_start
                0x0000000000011cce       0x16 contiki-rm090.a(autostart.o)
                0x0000000000011cce                autostart_start
 .far.text.energest_type_set
                0x0000000000011ce4        0x2 contiki-rm090.a(energest.o)
                0x0000000000011ce4                energest_type_set
 .far.text.energest_init
                0x0000000000011ce6        0x2 contiki-rm090.a(energest.o)
                0x0000000000011ce6                energest_init
 .far.text.energest_type_time
                0x0000000000011ce8        0x6 contiki-rm090.a(energest.o)
                0x0000000000011ce8                energest_type_time
 .far.text.energest_flush
                0x0000000000011cee        0x2 contiki-rm090.a(energest.o)
                0x0000000000011cee                energest_flush
 .far.text.update_time
                0x0000000000011cf0       0x70 contiki-rm090.a(etimer.o)
 .far.text.etimer_request_poll
                0x0000000000011d60        0xa contiki-rm090.a(etimer.o)
                0x0000000000011d60                etimer_request_poll
 .far.text.process_thread_etimer_process
                0x0000000000011d6a       0xc4 contiki-rm090.a(etimer.o)
 .far.text.add_timer
                0x0000000000011e2e       0x40 contiki-rm090.a(etimer.o)
 .far.text.etimer_set
                0x0000000000011e6e       0x12 contiki-rm090.a(etimer.o)
                0x0000000000011e6e                etimer_set
 .far.text.etimer_reset
                0x0000000000011e80       0x12 contiki-rm090.a(etimer.o)
                0x0000000000011e80                etimer_reset
 .far.text.etimer_restart
                0x0000000000011e92       0x12 contiki-rm090.a(etimer.o)
                0x0000000000011e92                etimer_restart
 .far.text.etimer_expired
                0x0000000000011ea4        0xe contiki-rm090.a(etimer.o)
                0x0000000000011ea4                etimer_expired
 .far.text.etimer_expiration_time
                0x0000000000011eb2       0x14 contiki-rm090.a(etimer.o)
                0x0000000000011eb2                etimer_expiration_time
 .far.text.etimer_pending
                0x0000000000011ec6        0xc contiki-rm090.a(etimer.o)
                0x0000000000011ec6                etimer_pending
 .far.text.etimer_next_expiration_time
                0x0000000000011ed2       0x16 contiki-rm090.a(etimer.o)
                0x0000000000011ed2                etimer_next_expiration_time
 .far.text.etimer_stop
                0x0000000000011ee8       0x3e contiki-rm090.a(etimer.o)
                0x0000000000011ee8                etimer_stop
 .far.text.call_process
                0x0000000000011f26       0x40 contiki-rm090.a(process.o)
 .far.text.exit_process
                0x0000000000011f66       0x88 contiki-rm090.a(process.o)
 .far.text.do_poll
                0x0000000000011fee       0x30 contiki-rm090.a(process.o)
 .far.text.process_alloc_event
                0x000000000001201e        0xe contiki-rm090.a(process.o)
                0x000000000001201e                process_alloc_event
 .far.text.process_init
                0x000000000001202c       0x1c contiki-rm090.a(process.o)
                0x000000000001202c                process_init
 .far.text.process_run
                0x0000000000012048       0x8c contiki-rm090.a(process.o)
                0x0000000000012048                process_run
 .far.text.process_nevents
                0x00000000000120d4        0xe contiki-rm090.a(process.o)
                0x00000000000120d4                process_nevents
 .far.text.process_post
                0x00000000000120e2       0x4a contiki-rm090.a(process.o)
                0x00000000000120e2                process_post
 .far.text.process_post_synch
                0x000000000001212c       0x12 contiki-rm090.a(process.o)
                0x000000000001212c                process_post_synch
 .far.text.process_start
                0x000000000001213e       0x36 contiki-rm090.a(process.o)
                0x000000000001213e                process_start
 .far.text.process_poll
                0x0000000000012174       0x18 contiki-rm090.a(process.o)
                0x0000000000012174                process_poll
 .far.text.rtimer_init
                0x000000000001218c        0x6 contiki-rm090.a(rtimer.o)
                0x000000000001218c                rtimer_init
 .far.text.rtimer_run_next
                0x0000000000012192       0x26 contiki-rm090.a(rtimer.o)
                0x0000000000012192                rtimer_run_next
 .far.text.timer_set
                0x00000000000121b8       0x1c contiki-rm090.a(timer.o)
                0x00000000000121b8                timer_set
 .far.text.timer_reset
                0x00000000000121d4        0xe contiki-rm090.a(timer.o)
                0x00000000000121d4                timer_reset
 .far.text.timer_restart
                0x00000000000121e2       0x14 contiki-rm090.a(timer.o)
                0x00000000000121e2                timer_restart
 .far.text.timer_expired
                0x00000000000121f6       0x2a contiki-rm090.a(timer.o)
                0x00000000000121f6                timer_expired
 .far.text.process_thread_serial_line_process
                0x0000000000012220       0x9e contiki-rm090.a(serial-line.o)
 .far.text.serial_line_input_byte
                0x00000000000122be       0x4a contiki-rm090.a(serial-line.o)
                0x00000000000122be                serial_line_input_byte
 .far.text.serial_line_init
                0x0000000000012308       0x1c contiki-rm090.a(serial-line.o)
                0x0000000000012308                serial_line_init
 .far.text.list_init
                0x0000000000012324        0x6 contiki-rm090.a(list.o)
                0x0000000000012324                list_init
 .far.text.list_head
                0x000000000001232a        0x4 contiki-rm090.a(list.o)
                0x000000000001232a                list_head
 .far.text.list_tail
                0x000000000001232e       0x12 contiki-rm090.a(list.o)
                0x000000000001232e                list_tail
 .far.text.list_remove
                0x0000000000012340       0x34 contiki-rm090.a(list.o)
                0x0000000000012340                list_remove
 .far.text.list_push
                0x0000000000012374       0x16 contiki-rm090.a(list.o)
                0x0000000000012374                list_push
 .far.text.list_add
                0x000000000001238a       0x26 contiki-rm090.a(list.o)
                0x000000000001238a                list_add
 .far.text.list_length
                0x00000000000123b0       0x10 contiki-rm090.a(list.o)
                0x00000000000123b0                list_length
 .far.text.list_item_next
                0x00000000000123c0        0xc contiki-rm090.a(list.o)
                0x00000000000123c0                list_item_next
 .far.text.ringbuf_init
                0x00000000000123cc       0x14 contiki-rm090.a(ringbuf.o)
                0x00000000000123cc                ringbuf_init
 .far.text.ringbuf_put
                0x00000000000123e0       0x38 contiki-rm090.a(ringbuf.o)
                0x00000000000123e0                ringbuf_put
 .far.text.ringbuf_get
                0x0000000000012418       0x2e contiki-rm090.a(ringbuf.o)
                0x0000000000012418                ringbuf_get
 .far.text.uip_ds6_list_loop
                0x0000000000012446       0x66 contiki-rm090.a(uip-ds6.o)
                0x0000000000012446                uip_ds6_list_loop
 .far.text.uip_ds6_prefix_add
                0x00000000000124ac       0x70 contiki-rm090.a(uip-ds6.o)
                0x00000000000124ac                uip_ds6_prefix_add
 .far.text.uip_ds6_is_addr_onlink
                0x000000000001251c       0x42 contiki-rm090.a(uip-ds6.o)
                0x000000000001251c                uip_ds6_is_addr_onlink
 .far.text.uip_ds6_addr_lookup
                0x000000000001255e       0x2a contiki-rm090.a(uip-ds6.o)
                0x000000000001255e                uip_ds6_addr_lookup
 .far.text.uip_ds6_get_link_local
                0x0000000000012588       0x3e contiki-rm090.a(uip-ds6.o)
                0x0000000000012588                uip_ds6_get_link_local
 .far.text.uip_ds6_maddr_add
                0x00000000000125c6       0x48 contiki-rm090.a(uip-ds6.o)
                0x00000000000125c6                uip_ds6_maddr_add
 .far.text.uip_ds6_addr_add
                0x000000000001260e       0xb4 contiki-rm090.a(uip-ds6.o)
                0x000000000001260e                uip_ds6_addr_add
 .far.text.uip_ds6_maddr_rm
                0x00000000000126c2        0xa contiki-rm090.a(uip-ds6.o)
                0x00000000000126c2                uip_ds6_maddr_rm
 .far.text.uip_ds6_maddr_lookup
                0x00000000000126cc       0x2a contiki-rm090.a(uip-ds6.o)
                0x00000000000126cc                uip_ds6_maddr_lookup
 .far.text.uip_ds6_addr_rm
                0x00000000000126f6       0x54 contiki-rm090.a(uip-ds6.o)
                0x00000000000126f6                uip_ds6_addr_rm
 .far.text.uip_ds6_periodic
                0x000000000001274a       0x46 contiki-rm090.a(uip-ds6.o)
                0x000000000001274a                uip_ds6_periodic
 .far.text.uip_ds6_set_addr_iid
                0x0000000000012790       0x14 contiki-rm090.a(uip-ds6.o)
                0x0000000000012790                uip_ds6_set_addr_iid
 .far.text.get_match_length
                0x00000000000127a4       0x3c contiki-rm090.a(uip-ds6.o)
                0x00000000000127a4                get_match_length
 .far.text.uip_ds6_select_src
                0x00000000000127e0       0x9a contiki-rm090.a(uip-ds6.o)
                0x00000000000127e0                uip_ds6_select_src
 .far.text.uip_ds6_compute_reachable_time
                0x000000000001287a       0x36 contiki-rm090.a(uip-ds6.o)
                0x000000000001287a                uip_ds6_compute_reachable_time
 .far.text.uip_ds6_init
                0x00000000000128b0      0x138 contiki-rm090.a(uip-ds6.o)
                0x00000000000128b0                uip_ds6_init
 .far.text.call_route_callback
                0x00000000000129e8       0x40 contiki-rm090.a(uip-ds6-route.o)
 .far.text.uip_ds6_route_init
                0x0000000000012a28       0x36 contiki-rm090.a(uip-ds6-route.o)
                0x0000000000012a28                uip_ds6_route_init
 .far.text.uip_ds6_route_nexthop
                0x0000000000012a5e       0x1a contiki-rm090.a(uip-ds6-route.o)
                0x0000000000012a5e                uip_ds6_route_nexthop
 .far.text.uip_ds6_route_head
                0x0000000000012a78        0xa contiki-rm090.a(uip-ds6-route.o)
                0x0000000000012a78                uip_ds6_route_head
 .far.text.uip_ds6_route_next
                0x0000000000012a82        0xe contiki-rm090.a(uip-ds6-route.o)
                0x0000000000012a82                uip_ds6_route_next
 .far.text.uip_ds6_route_is_nexthop
                0x0000000000012a90       0x22 contiki-rm090.a(uip-ds6-route.o)
                0x0000000000012a90                uip_ds6_route_is_nexthop
 .far.text.uip_ds6_route_lookup
                0x0000000000012ab2       0x6e contiki-rm090.a(uip-ds6-route.o)
                0x0000000000012ab2                uip_ds6_route_lookup
 .far.text.uip_ds6_route_rm
                0x0000000000012b20       0xa2 contiki-rm090.a(uip-ds6-route.o)
                0x0000000000012b20                uip_ds6_route_rm
 .far.text.rm_routelist
                0x0000000000012bc2       0x34 contiki-rm090.a(uip-ds6-route.o)
 .far.text.rm_routelist_callback
                0x0000000000012bf6        0x6 contiki-rm090.a(uip-ds6-route.o)
 .far.text.uip_ds6_route_add
                0x0000000000012bfc       0xfc contiki-rm090.a(uip-ds6-route.o)
                0x0000000000012bfc                uip_ds6_route_add
 .far.text.uip_ds6_defrt_rm
                0x0000000000012cf8       0x44 contiki-rm090.a(uip-ds6-route.o)
                0x0000000000012cf8                uip_ds6_defrt_rm
 .far.text.uip_ds6_defrt_lookup
                0x0000000000012d3c       0x32 contiki-rm090.a(uip-ds6-route.o)
                0x0000000000012d3c                uip_ds6_defrt_lookup
 .far.text.uip_ds6_defrt_add
                0x0000000000012d6e       0x68 contiki-rm090.a(uip-ds6-route.o)
                0x0000000000012d6e                uip_ds6_defrt_add
 .far.text.uip_ds6_defrt_choose
                0x0000000000012dd6       0x36 contiki-rm090.a(uip-ds6-route.o)
                0x0000000000012dd6                uip_ds6_defrt_choose
 .far.text.uip_ds6_defrt_periodic
                0x0000000000012e0c       0x38 contiki-rm090.a(uip-ds6-route.o)
                0x0000000000012e0c                uip_ds6_defrt_periodic
 .far.text.chksum
                0x0000000000012e44       0x32 contiki-rm090.a(uip6.o)
 .far.text.upper_layer_chksum
                0x0000000000012e76       0x56 contiki-rm090.a(uip6.o)
 .far.text.ext_hdr_options_process
                0x0000000000012ecc       0xc2 contiki-rm090.a(uip6.o)
 .far.text.uip_add32
                0x0000000000012f8e       0x60 contiki-rm090.a(uip6.o)
                0x0000000000012f8e                uip_add32
 .far.text.uip_add_rcv_nxt
                0x0000000000012fee       0x2e contiki-rm090.a(uip6.o)
 .far.text.uip_icmp6chksum
                0x000000000001301c        0xa contiki-rm090.a(uip6.o)
                0x000000000001301c                uip_icmp6chksum
 .far.text.uip_tcpchksum
                0x0000000000013026        0xa contiki-rm090.a(uip6.o)
                0x0000000000013026                uip_tcpchksum
 .far.text.uip_udpchksum
                0x0000000000013030        0xa contiki-rm090.a(uip6.o)
                0x0000000000013030                uip_udpchksum
 .far.text.uip_init
                0x000000000001303a       0x56 contiki-rm090.a(uip6.o)
                0x000000000001303a                uip_init
 .far.text.remove_ext_hdr
                0x0000000000013090       0x50 contiki-rm090.a(uip6.o)
                0x0000000000013090                remove_ext_hdr
 .far.text.uip_udp_new
                0x00000000000130e0       0xa2 contiki-rm090.a(uip6.o)
                0x00000000000130e0                uip_udp_new
 .far.text.uip_unlisten
                0x0000000000013182       0x1a contiki-rm090.a(uip6.o)
                0x0000000000013182                uip_unlisten
 .far.text.uip_process
                0x000000000001319c      0xe04 contiki-rm090.a(uip6.o)
                0x000000000001319c                uip_process
 .far.text.uip_htonl
                0x0000000000013fa0       0x2a contiki-rm090.a(uip6.o)
                0x0000000000013fa0                uip_htonl
 .far.text.uip_ds6_nbr_rm
                0x0000000000013fca       0x1e contiki-rm090.a(uip-ds6-nbr.o)
                0x0000000000013fca                uip_ds6_nbr_rm
 .far.text.uip_ds6_neighbors_init
                0x0000000000013fe8       0x12 contiki-rm090.a(uip-ds6-nbr.o)
                0x0000000000013fe8                uip_ds6_neighbors_init
 .far.text.uip_ds6_nbr_add
                0x0000000000013ffa       0x36 contiki-rm090.a(uip-ds6-nbr.o)
                0x0000000000013ffa                uip_ds6_nbr_add
 .far.text.uip_ds6_nbr_get_ll
                0x0000000000014030        0xc contiki-rm090.a(uip-ds6-nbr.o)
                0x0000000000014030                uip_ds6_nbr_get_ll
 .far.text.uip_ds6_nbr_lookup
                0x000000000001403c       0x3e contiki-rm090.a(uip-ds6-nbr.o)
                0x000000000001403c                uip_ds6_nbr_lookup
 .far.text.uip_ds6_nbr_ll_lookup
                0x000000000001407a        0xc contiki-rm090.a(uip-ds6-nbr.o)
                0x000000000001407a                uip_ds6_nbr_ll_lookup
 .far.text.uip_ds6_nbr_ipaddr_from_lladdr
                0x0000000000014086        0x6 contiki-rm090.a(uip-ds6-nbr.o)
                0x0000000000014086                uip_ds6_nbr_ipaddr_from_lladdr
 .far.text.uip_ds6_nbr_lladdr_from_ipaddr
                0x000000000001408c       0x12 contiki-rm090.a(uip-ds6-nbr.o)
                0x000000000001408c                uip_ds6_nbr_lladdr_from_ipaddr
 .far.text.uip_ds6_link_neighbor_callback
                0x000000000001409e       0x32 contiki-rm090.a(uip-ds6-nbr.o)
                0x000000000001409e                uip_ds6_link_neighbor_callback
 .far.text.uip_nd6_init
                0x00000000000140d0        0x2 contiki-rm090.a(uip-nd6.o)
                0x00000000000140d0                uip_nd6_init
 .far.text.clear_fragments
                0x00000000000140d2       0x38 contiki-rm090.a(sicslowpan.o)
 .far.text.set_packet_attrs
                0x000000000001410a       0x46 contiki-rm090.a(sicslowpan.o)
 .far.text.addr_context_lookup_by_number
                0x0000000000014150       0x30 contiki-rm090.a(sicslowpan.o)
 .far.text.compress_addr_64
                0x0000000000014180       0x9a contiki-rm090.a(sicslowpan.o)
 .far.text.store_fragment
                0x000000000001421a       0x6e contiki-rm090.a(sicslowpan.o)
 .far.text.uncompress_addr
                0x0000000000014288       0x96 contiki-rm090.a(sicslowpan.o)
 .far.text.sicslowpan_init
                0x000000000001431e       0x24 contiki-rm090.a(sicslowpan.o)
                0x000000000001431e                sicslowpan_init
 .far.text.addr_context_lookup_by_prefix
                0x0000000000014342       0x4a contiki-rm090.a(sicslowpan.o)
 .far.text.packet_sent
                0x000000000001438c       0x22 contiki-rm090.a(sicslowpan.o)
 .far.text.add_fragment
                0x00000000000143ae      0x160 contiki-rm090.a(sicslowpan.o)
 .far.text.input
                0x000000000001450e      0x60e contiki-rm090.a(sicslowpan.o)
 .far.text.send_packet
                0x0000000000014b1c       0x1a contiki-rm090.a(sicslowpan.o)
 .far.text.output
                0x0000000000014b36      0x67c contiki-rm090.a(sicslowpan.o)
 .far.text.start_periodic_tcp_timer
                0x00000000000151b2       0x16 contiki-rm090.a(tcpip.o)
 .far.text.tcpip_output
                0x00000000000151c8       0x10 contiki-rm090.a(tcpip.o)
                0x00000000000151c8                tcpip_output
 .far.text.tcpip_set_outputfunc
                0x00000000000151d8        0x6 contiki-rm090.a(tcpip.o)
                0x00000000000151d8                tcpip_set_outputfunc
 .far.text.udp_new
                0x00000000000151de       0x1a contiki-rm090.a(tcpip.o)
                0x00000000000151de                udp_new
 .far.text.tcpip_input
                0x00000000000151f8       0x16 contiki-rm090.a(tcpip.o)
                0x00000000000151f8                tcpip_input
 .far.text.tcpip_ipv6_output
                0x000000000001520e       0xcc contiki-rm090.a(tcpip.o)
                0x000000000001520e                tcpip_ipv6_output
 .far.text.process_thread_tcpip_process
                0x00000000000152da      0x1a8 contiki-rm090.a(tcpip.o)
 .far.text.tcpip_uipcall
                0x0000000000015482       0x62 contiki-rm090.a(tcpip.o)
                0x0000000000015482                tcpip_uipcall
 .far.text.uip_debug_ipaddr_print
                0x00000000000154e4       0xbc contiki-rm090.a(uip-debug.o)
                0x00000000000154e4                uip_debug_ipaddr_print
 .far.text.update_hbh_header
                0x00000000000155a0       0xcc contiki-rm090.a(rpl-ext-header.)
 .far.text.insert_hbh_header
                0x000000000001566c       0x94 contiki-rm090.a(rpl-ext-header.)
 .far.text.rpl_verify_hbh_header
                0x0000000000015700      0x100 contiki-rm090.a(rpl-ext-header.)
                0x0000000000015700                rpl_verify_hbh_header
 .far.text.rpl_remove_header
                0x0000000000015800       0x76 contiki-rm090.a(rpl-ext-header.)
                0x0000000000015800                rpl_remove_header
 .far.text.rpl_update_header
                0x0000000000015876       0x54 contiki-rm090.a(rpl-ext-header.)
                0x0000000000015876                rpl_update_header
 .far.text.rpl_get_mode
                0x00000000000158ca        0x6 contiki-rm090.a(rpl.o)
                0x00000000000158ca                rpl_get_mode
 .far.text.rpl_purge_routes
                0x00000000000158d0       0x96 contiki-rm090.a(rpl.o)
                0x00000000000158d0                rpl_purge_routes
 .far.text.rpl_remove_routes
                0x0000000000015966       0x22 contiki-rm090.a(rpl.o)
                0x0000000000015966                rpl_remove_routes
 .far.text.rpl_remove_routes_by_nexthop
                0x0000000000015988       0x3e contiki-rm090.a(rpl.o)
                0x0000000000015988                rpl_remove_routes_by_nexthop
 .far.text.rpl_add_route
                0x00000000000159c6       0x48 contiki-rm090.a(rpl.o)
                0x00000000000159c6                rpl_add_route
 .far.text.rpl_link_neighbor_callback
                0x0000000000015a0e       0x4c contiki-rm090.a(rpl.o)
                0x0000000000015a0e                rpl_link_neighbor_callback
 .far.text.rpl_ipv6_neighbor_callback
                0x0000000000015a5a       0x1e contiki-rm090.a(rpl.o)
                0x0000000000015a5a                rpl_ipv6_neighbor_callback
 .far.text.rpl_purge_dags
                0x0000000000015a78       0x60 contiki-rm090.a(rpl.o)
                0x0000000000015a78                rpl_purge_dags
 .far.text.rpl_init
                0x0000000000015ad8       0x52 contiki-rm090.a(rpl.o)
                0x0000000000015ad8                rpl_init
 .far.text.lollipop_greater_than
                0x0000000000015b2a       0x3c contiki-rm090.a(rpl-dag.o)
 .far.text.find_parent_any_dag_any_instance
                0x0000000000015b66       0x14 contiki-rm090.a(rpl-dag.o)
 .far.text.rpl_set_preferred_parent
                0x0000000000015b7a       0x2c contiki-rm090.a(rpl-dag.o)
 .far.text.set_ip_from_prefix
                0x0000000000015ba6       0x30 contiki-rm090.a(rpl-dag.o)
 .far.text.check_prefix
                0x0000000000015bd6       0x70 contiki-rm090.a(rpl-dag.o)
 .far.text.rpl_dag_init
                0x0000000000015c46        0xe contiki-rm090.a(rpl-dag.o)
                0x0000000000015c46                rpl_dag_init
 .far.text.rpl_get_parent
                0x0000000000015c54        0xc contiki-rm090.a(rpl-dag.o)
                0x0000000000015c54                rpl_get_parent
 .far.text.rpl_rank_via_parent
                0x0000000000015c60       0x2a contiki-rm090.a(rpl-dag.o)
                0x0000000000015c60                rpl_rank_via_parent
 .far.text.rpl_get_parent_lladdr
                0x0000000000015c8a        0xc contiki-rm090.a(rpl-dag.o)
                0x0000000000015c8a                rpl_get_parent_lladdr
 .far.text.rpl_get_parent_ipaddr
                0x0000000000015c96        0xa contiki-rm090.a(rpl-dag.o)
                0x0000000000015c96                rpl_get_parent_ipaddr
 .far.text.rpl_get_parent_link_stats
                0x0000000000015ca0        0xa contiki-rm090.a(rpl-dag.o)
                0x0000000000015ca0                rpl_get_parent_link_stats
 .far.text.rpl_parent_is_fresh
                0x0000000000015caa        0xa contiki-rm090.a(rpl-dag.o)
                0x0000000000015caa                rpl_parent_is_fresh
 .far.text.best_parent
                0x0000000000015cb4       0x66 contiki-rm090.a(rpl-dag.o)
 .far.text.rpl_parent_is_reachable
                0x0000000000015d1a       0x4a contiki-rm090.a(rpl-dag.o)
                0x0000000000015d1a                rpl_parent_is_reachable
 .far.text.rpl_set_prefix
                0x0000000000015d64       0x74 contiki-rm090.a(rpl-dag.o)
                0x0000000000015d64                rpl_set_prefix
 .far.text.rpl_set_default_route
                0x0000000000015dd8       0x3a contiki-rm090.a(rpl-dag.o)
                0x0000000000015dd8                rpl_set_default_route
 .far.text.rpl_alloc_instance
                0x0000000000015e12       0x34 contiki-rm090.a(rpl-dag.o)
                0x0000000000015e12                rpl_alloc_instance
 .far.text.rpl_add_parent
                0x0000000000015e46       0x3a contiki-rm090.a(rpl-dag.o)
                0x0000000000015e46                rpl_add_parent
 .far.text.rpl_find_parent
                0x0000000000015e80       0x1a contiki-rm090.a(rpl-dag.o)
                0x0000000000015e80                rpl_find_parent
 .far.text.rpl_find_parent_any_dag
                0x0000000000015e9a       0x22 contiki-rm090.a(rpl-dag.o)
                0x0000000000015e9a                rpl_find_parent_any_dag
 .far.text.rpl_select_parent
                0x0000000000015ebc       0x62 contiki-rm090.a(rpl-dag.o)
                0x0000000000015ebc                rpl_select_parent
 .far.text.rpl_select_dag
                0x0000000000015f1e      0x196 contiki-rm090.a(rpl-dag.o)
                0x0000000000015f1e                rpl_select_dag
 .far.text.rpl_nullify_parent
                0x00000000000160b4       0x5c contiki-rm090.a(rpl-dag.o)
                0x00000000000160b4                rpl_nullify_parent
 .far.text.rpl_remove_parent
                0x0000000000016110       0x16 contiki-rm090.a(rpl-dag.o)
                0x0000000000016110                rpl_remove_parent
 .far.text.nbr_callback
                0x0000000000016126        0x6 contiki-rm090.a(rpl-dag.o)
 .far.text.remove_parents.constprop.5
                0x000000000001612c       0x2c contiki-rm090.a(rpl-dag.o)
 .far.text.rpl_free_dag
                0x0000000000016158       0x42 contiki-rm090.a(rpl-dag.o)
                0x0000000000016158                rpl_free_dag
 .far.text.rpl_move_parent
                0x000000000001619a       0x60 contiki-rm090.a(rpl-dag.o)
                0x000000000001619a                rpl_move_parent
 .far.text.rpl_get_any_dag
                0x00000000000161fa       0x16 contiki-rm090.a(rpl-dag.o)
                0x00000000000161fa                rpl_get_any_dag
 .far.text.rpl_get_instance
                0x0000000000016210       0x16 contiki-rm090.a(rpl-dag.o)
                0x0000000000016210                rpl_get_instance
 .far.text.rpl_alloc_dag
                0x0000000000016226       0x62 contiki-rm090.a(rpl-dag.o)
                0x0000000000016226                rpl_alloc_dag
 .far.text.rpl_repair_root
                0x0000000000016288       0x54 contiki-rm090.a(rpl-dag.o)
                0x0000000000016288                rpl_repair_root
 .far.text.rpl_find_of
                0x00000000000162dc       0x1c contiki-rm090.a(rpl-dag.o)
                0x00000000000162dc                rpl_find_of
 .far.text.rpl_set_root
                0x00000000000162f8      0x134 contiki-rm090.a(rpl-dag.o)
                0x00000000000162f8                rpl_set_root
 .far.text.rpl_join_instance
                0x000000000001642c      0x142 contiki-rm090.a(rpl-dag.o)
                0x000000000001642c                rpl_join_instance
 .far.text.rpl_local_repair
                0x000000000001656e       0x80 contiki-rm090.a(rpl-dag.o)
                0x000000000001656e                rpl_local_repair
 .far.text.rpl_process_parent_event
                0x00000000000165ee       0xa8 contiki-rm090.a(rpl-dag.o)
                0x00000000000165ee                rpl_process_parent_event
 .far.text.rpl_recalculate_ranks
                0x0000000000016696       0x44 contiki-rm090.a(rpl-dag.o)
                0x0000000000016696                rpl_recalculate_ranks
 .far.text.rpl_add_dag
                0x00000000000166da      0x104 contiki-rm090.a(rpl-dag.o)
                0x00000000000166da                rpl_add_dag
 .far.text.rpl_process_dio
                0x00000000000167de      0x32c contiki-rm090.a(rpl-dag.o)
                0x00000000000167de                rpl_process_dio
 .far.text.queuebuf_init
                0x0000000000016b0a       0x12 contiki-rm090.a(queuebuf.o)
                0x0000000000016b0a                queuebuf_init
 .far.text.queuebuf_numfree
                0x0000000000016b1c        0xa contiki-rm090.a(queuebuf.o)
                0x0000000000016b1c                queuebuf_numfree
 .far.text.queuebuf_new_from_packetbuf
                0x0000000000016b26       0x4e contiki-rm090.a(queuebuf.o)
                0x0000000000016b26                queuebuf_new_from_packetbuf
 .far.text.queuebuf_update_attr_from_packetbuf
                0x0000000000016b74       0x12 contiki-rm090.a(queuebuf.o)
                0x0000000000016b74                queuebuf_update_attr_from_packetbuf
 .far.text.queuebuf_free
                0x0000000000016b86       0x2a contiki-rm090.a(queuebuf.o)
                0x0000000000016b86                queuebuf_free
 .far.text.queuebuf_to_packetbuf
                0x0000000000016bb0       0x32 contiki-rm090.a(queuebuf.o)
                0x0000000000016bb0                queuebuf_to_packetbuf
 .far.text.queuebuf_attr
                0x0000000000016be2        0xe contiki-rm090.a(queuebuf.o)
                0x0000000000016be2                queuebuf_attr
 .far.text.key_from_index
                0x0000000000016bf0       0x18 contiki-rm090.a(nbr-table.o)
 .far.text.item_from_index
                0x0000000000016c08       0x2a contiki-rm090.a(nbr-table.o)
 .far.text.index_from_key
                0x0000000000016c32       0x26 contiki-rm090.a(nbr-table.o)
 .far.text.index_from_item
                0x0000000000016c58       0x1e contiki-rm090.a(nbr-table.o)
 .far.text.nbr_set_bit
                0x0000000000016c76       0x50 contiki-rm090.a(nbr-table.o)
 .far.text.index_from_lladdr
                0x0000000000016cc6       0x3e contiki-rm090.a(nbr-table.o)
 .far.text.nbr_get_bit.constprop.0
                0x0000000000016d04       0x2c contiki-rm090.a(nbr-table.o)
 .far.text.remove_key
                0x0000000000016d30       0x56 contiki-rm090.a(nbr-table.o)
 .far.text.nbr_table_register
                0x0000000000016d86       0x26 contiki-rm090.a(nbr-table.o)
                0x0000000000016d86                nbr_table_register
 .far.text.nbr_table_next
                0x0000000000016dac       0x3a contiki-rm090.a(nbr-table.o)
                0x0000000000016dac                nbr_table_next
 .far.text.nbr_table_head
                0x0000000000016de6       0x36 contiki-rm090.a(nbr-table.o)
                0x0000000000016de6                nbr_table_head
 .far.text.nbr_table_add_lladdr
                0x0000000000016e1c       0xfc contiki-rm090.a(nbr-table.o)
                0x0000000000016e1c                nbr_table_add_lladdr
 .far.text.nbr_table_get_from_lladdr
                0x0000000000016f18       0x28 contiki-rm090.a(nbr-table.o)
                0x0000000000016f18                nbr_table_get_from_lladdr
 .far.text.nbr_table_remove
                0x0000000000016f40       0x2a contiki-rm090.a(nbr-table.o)
                0x0000000000016f40                nbr_table_remove
 .far.text.nbr_table_lock
                0x0000000000016f6a       0x10 contiki-rm090.a(nbr-table.o)
                0x0000000000016f6a                nbr_table_lock
 .far.text.nbr_table_unlock
                0x0000000000016f7a       0x10 contiki-rm090.a(nbr-table.o)
                0x0000000000016f7a                nbr_table_unlock
 .far.text.nbr_table_get_lladdr
                0x0000000000016f8a       0x14 contiki-rm090.a(nbr-table.o)
                0x0000000000016f8a                nbr_table_get_lladdr
 .far.text.packetbuf_hdrreduce
                0x0000000000016f9e       0x1a contiki-rm090.a(packetbuf.o)
                0x0000000000016f9e                packetbuf_hdrreduce
 .far.text.packetbuf_set_datalen
                0x0000000000016fb8        0x6 contiki-rm090.a(packetbuf.o)
                0x0000000000016fb8                packetbuf_set_datalen
 .far.text.packetbuf_hdrptr
                0x0000000000016fbe        0x6 contiki-rm090.a(packetbuf.o)
                0x0000000000016fbe                packetbuf_hdrptr
 .far.text.packetbuf_datalen
                0x0000000000016fc4        0x6 contiki-rm090.a(packetbuf.o)
                0x0000000000016fc4                packetbuf_datalen
 .far.text.packetbuf_hdrlen
                0x0000000000016fca        0xa contiki-rm090.a(packetbuf.o)
                0x0000000000016fca                packetbuf_hdrlen
 .far.text.packetbuf_dataptr
                0x0000000000016fd4        0xc contiki-rm090.a(packetbuf.o)
                0x0000000000016fd4                packetbuf_dataptr
 .far.text.packetbuf_copyto
                0x0000000000016fe0       0x3a contiki-rm090.a(packetbuf.o)
                0x0000000000016fe0                packetbuf_copyto
 .far.text.packetbuf_totlen
                0x000000000001701a        0xc contiki-rm090.a(packetbuf.o)
                0x000000000001701a                packetbuf_totlen
 .far.text.packetbuf_hdralloc
                0x0000000000017026       0x3c contiki-rm090.a(packetbuf.o)
                0x0000000000017026                packetbuf_hdralloc
 .far.text.packetbuf_attr_clear
                0x0000000000017062       0x28 contiki-rm090.a(packetbuf.o)
                0x0000000000017062                packetbuf_attr_clear
 .far.text.packetbuf_clear
                0x000000000001708a       0x12 contiki-rm090.a(packetbuf.o)
                0x000000000001708a                packetbuf_clear
 .far.text.packetbuf_copyfrom
                0x000000000001709c       0x2a contiki-rm090.a(packetbuf.o)
                0x000000000001709c                packetbuf_copyfrom
 .far.text.packetbuf_attr_copyto
                0x00000000000170c6       0x22 contiki-rm090.a(packetbuf.o)
                0x00000000000170c6                packetbuf_attr_copyto
 .far.text.packetbuf_attr_copyfrom
                0x00000000000170e8       0x24 contiki-rm090.a(packetbuf.o)
                0x00000000000170e8                packetbuf_attr_copyfrom
 .far.text.packetbuf_holds_broadcast
                0x000000000001710c        0xe contiki-rm090.a(packetbuf.o)
                0x000000000001710c                packetbuf_holds_broadcast
 .far.text.linkaddr_copy
                0x000000000001711a        0x8 contiki-rm090.a(linkaddr.o)
                0x000000000001711a                linkaddr_copy
 .far.text.linkaddr_cmp
                0x0000000000017122       0x12 contiki-rm090.a(linkaddr.o)
                0x0000000000017122                linkaddr_cmp
 .far.text.linkaddr_set_node_addr
                0x0000000000017134        0xc contiki-rm090.a(linkaddr.o)
                0x0000000000017134                linkaddr_set_node_addr
 .far.text.periodic
                0x0000000000017140       0x2c contiki-rm090.a(link-stats.o)
 .far.text.link_stats_from_lladdr
                0x000000000001716c        0xc contiki-rm090.a(link-stats.o)
                0x000000000001716c                link_stats_from_lladdr
 .far.text.link_stats_is_fresh
                0x0000000000017178       0x32 contiki-rm090.a(link-stats.o)
                0x0000000000017178                link_stats_is_fresh
 .far.text.link_stats_packet_sent
                0x00000000000171aa       0xde contiki-rm090.a(link-stats.o)
                0x00000000000171aa                link_stats_packet_sent
 .far.text.link_stats_input_callback
                0x0000000000017288       0x84 contiki-rm090.a(link-stats.o)
                0x0000000000017288                link_stats_input_callback
 .far.text.link_stats_init
                0x000000000001730c       0x22 contiki-rm090.a(link-stats.o)
                0x000000000001730c                link_stats_init
 .far.text.create_frame.isra.0
                0x000000000001732e      0x114 contiki-rm090.a(framer-802154.o)
 .far.text.create
                0x0000000000017442        0x8 contiki-rm090.a(framer-802154.o)
 .far.text.hdr_length
                0x000000000001744a        0x8 contiki-rm090.a(framer-802154.o)
 .far.text.parse
                0x0000000000017452       0x9a contiki-rm090.a(framer-802154.o)
 .far.text.input_packet
                0x00000000000174ec        0xe contiki-rm090.a(csma.o)
 .far.text.on   0x00000000000174fa        0x6 contiki-rm090.a(csma.o)
 .far.text.off  0x0000000000017500        0x6 contiki-rm090.a(csma.o)
 .far.text.channel_check_interval
                0x0000000000017506       0x10 contiki-rm090.a(csma.o)
 .far.text.getNodeAddress
                0x0000000000017516        0x6 contiki-rm090.a(csma.o)
 .far.text.transmit_packet_list
                0x000000000001751c       0x24 contiki-rm090.a(csma.o)
 .far.text.schedule_transmission
                0x0000000000017540       0xbe contiki-rm090.a(csma.o)
 .far.text.init
                0x00000000000175fe       0x4a contiki-rm090.a(csma.o)
 .far.text.tx_done
                0x0000000000017648       0x86 contiki-rm090.a(csma.o)
 .far.text.send_packet
                0x00000000000176ce      0x172 contiki-rm090.a(csma.o)
 .far.text.packet_sent
                0x0000000000017840      0x10a contiki-rm090.a(csma.o)
 .far.text.get_macstats
                0x000000000001794a       0x48 contiki-rm090.a(csma.o)
                0x000000000001794a                get_macstats
 .far.text.frame802154_get_pan_id
                0x0000000000017992        0x6 contiki-rm090.a(frame802154.o)
                0x0000000000017992                frame802154_get_pan_id
 .far.text.frame802154_has_panid
                0x0000000000017998       0x78 contiki-rm090.a(frame802154.o)
                0x0000000000017998                frame802154_has_panid
 .far.text.field_len
                0x0000000000017a10       0xa8 contiki-rm090.a(frame802154.o)
 .far.text.frame802154_is_broadcast_addr
                0x0000000000017ab8       0x28 contiki-rm090.a(frame802154.o)
                0x0000000000017ab8                frame802154_is_broadcast_addr
 .far.text.frame802154_hdrlen
                0x0000000000017ae0       0x32 contiki-rm090.a(frame802154.o)
                0x0000000000017ae0                frame802154_hdrlen
 .far.text.frame802154_create
                0x0000000000017b12      0x136 contiki-rm090.a(frame802154.o)
                0x0000000000017b12                frame802154_create
 .far.text.frame802154_parse
                0x0000000000017c48      0x1be contiki-rm090.a(frame802154.o)
                0x0000000000017c48                frame802154_parse
 .far.text.mac_call_sent_callback
                0x0000000000017e06       0x14 contiki-rm090.a(mac.o)
                0x0000000000017e06                mac_call_sent_callback
 .far.text.process_thread_macstats_event_process
                0x0000000000017e1a       0x96 contiki-rm090.a(macstats.o)
 .far.text.on   0x0000000000017eb0        0x6 contiki-rm090.a(nullrdc.o)
 .far.text.channel_check_interval
                0x0000000000017eb6        0x4 contiki-rm090.a(nullrdc.o)
 .far.text.init
                0x0000000000017eba        0x6 contiki-rm090.a(nullrdc.o)
 .far.text.off  0x0000000000017ec0       0x10 contiki-rm090.a(nullrdc.o)
 .far.text.packet_input
                0x0000000000017ed0       0x40 contiki-rm090.a(nullrdc.o)
 .far.text.send_one_packet
                0x0000000000017f10      0x114 contiki-rm090.a(nullrdc.o)
 .far.text.send_list
                0x0000000000018024       0x28 contiki-rm090.a(nullrdc.o)
 .far.text.send_packet
                0x000000000001804c        0x6 contiki-rm090.a(nullrdc.o)
 .far.text.init
                0x0000000000018052        0x2 contiki-rm090.a(nullsec.o)
 .far.text.send
                0x0000000000018054        0xa contiki-rm090.a(nullsec.o)
 .far.text.input
                0x000000000001805e        0x6 contiki-rm090.a(nullsec.o)
 .far.text.base64_decode
                0x0000000000018064       0xc8 contiki-rm090.a(base64.o)
                0x0000000000018064                base64_decode
 .far.text.base64_encode
                0x000000000001812c       0xf8 contiki-rm090.a(base64.o)
                0x000000000001812c                base64_encode
 .far.text.spi_init
                0x0000000000018224       0x32 contiki-rm090.a(spi.o)
                0x0000000000018224                spi_init
 .far.text.stimer_set
                0x0000000000018256       0x1c contiki-rm090.a(stimer.o)
                0x0000000000018256                stimer_set
 .far.text.stimer_expired
                0x0000000000018272       0x30 contiki-rm090.a(stimer.o)
                0x0000000000018272                stimer_expired
 .far.text.memb_init
                0x00000000000182a2       0x36 contiki-rm090.a(memb.o)
                0x00000000000182a2                memb_init
 .far.text.memb_alloc
                0x00000000000182d8       0x3e contiki-rm090.a(memb.o)
                0x00000000000182d8                memb_alloc
 .far.text.memb_free
                0x0000000000018316       0x3a contiki-rm090.a(memb.o)
                0x0000000000018316                memb_free
 .far.text.memb_inmemb
                0x0000000000018350       0x2a contiki-rm090.a(memb.o)
                0x0000000000018350                memb_inmemb
 .far.text.memb_numfree
                0x000000000001837a       0x26 contiki-rm090.a(memb.o)
                0x000000000001837a                memb_numfree
 .far.text.random_rand
                0x00000000000183a0        0x6 contiki-rm090.a(random.o)
                0x00000000000183a0                random_rand
 .far.text.echo_reply_input
                0x00000000000183a6       0xaa contiki-rm090.a(uip-icmp6.o)
 .far.text.echo_request_input
                0x0000000000018450       0xce contiki-rm090.a(uip-icmp6.o)
 .far.text.uip_icmp6_input
                0x000000000001851e       0x44 contiki-rm090.a(uip-icmp6.o)
                0x000000000001851e                uip_icmp6_input
 .far.text.uip_icmp6_register_input_handler
                0x0000000000018562        0xc contiki-rm090.a(uip-icmp6.o)
                0x0000000000018562                uip_icmp6_register_input_handler
 .far.text.uip_icmp6_error_output
                0x000000000001856e      0x172 contiki-rm090.a(uip-icmp6.o)
                0x000000000001856e                uip_icmp6_error_output
 .far.text.uip_icmp6_send
                0x00000000000186e0       0x90 contiki-rm090.a(uip-icmp6.o)
                0x00000000000186e0                uip_icmp6_send
 .far.text.uip_icmp6_init
                0x0000000000018770       0x12 contiki-rm090.a(uip-icmp6.o)
                0x0000000000018770                uip_icmp6_init
 .far.text.get32
                0x0000000000018782       0x3e contiki-rm090.a(rpl-icmp6.o)
 .far.text.set32
                0x00000000000187c0       0x2a contiki-rm090.a(rpl-icmp6.o)
 .far.text.get16
                0x00000000000187ea        0xe contiki-rm090.a(rpl-icmp6.o)
 .far.text.set16
                0x00000000000187f8       0x10 contiki-rm090.a(rpl-icmp6.o)
 .far.text.dao_ack_input
                0x0000000000018808        0xa contiki-rm090.a(rpl-icmp6.o)
 .far.text.dio_input
                0x0000000000018812      0x290 contiki-rm090.a(rpl-icmp6.o)
 .far.text.rpl_icmp6_update_nbr_table
                0x0000000000018aa2       0x28 contiki-rm090.a(rpl-icmp6.o)
                0x0000000000018aa2                rpl_icmp6_update_nbr_table
 .far.text.dao_input
                0x0000000000018aca      0x2aa contiki-rm090.a(rpl-icmp6.o)
 .far.text.dis_output
                0x0000000000018d74       0x50 contiki-rm090.a(rpl-icmp6.o)
                0x0000000000018d74                dis_output
 .far.text.dio_output
                0x0000000000018dc4      0x24c contiki-rm090.a(rpl-icmp6.o)
                0x0000000000018dc4                dio_output
 .far.text.dis_input
                0x0000000000019010       0x3e contiki-rm090.a(rpl-icmp6.o)
 .far.text.dao_output_target
                0x000000000001904e       0xf6 contiki-rm090.a(rpl-icmp6.o)
                0x000000000001904e                dao_output_target
 .far.text.dao_output
                0x0000000000019144       0x9e contiki-rm090.a(rpl-icmp6.o)
                0x0000000000019144                dao_output
 .far.text.rpl_icmp6_register_handlers
                0x00000000000191e2       0x22 contiki-rm090.a(rpl-icmp6.o)
                0x00000000000191e2                rpl_icmp6_register_handlers
 .far.text.reset
                0x0000000000019204        0x2 contiki-rm090.a(rpl-of0.o)
 .far.text.update_metric_container
                0x0000000000019206        0x6 contiki-rm090.a(rpl-of0.o)
 .far.text.parent_link_metric
                0x000000000001920c       0x10 contiki-rm090.a(rpl-of0.o)
 .far.text.parent_rank_increase
                0x000000000001921c       0x44 contiki-rm090.a(rpl-of0.o)
 .far.text.best_dag
                0x0000000000019260       0x2e contiki-rm090.a(rpl-of0.o)
 .far.text.parent_is_acceptable
                0x000000000001928e       0x38 contiki-rm090.a(rpl-of0.o)
 .far.text.parent_has_usable_link
                0x00000000000192c6        0x6 contiki-rm090.a(rpl-of0.o)
 .far.text.rank_via_parent
                0x00000000000192cc       0x36 contiki-rm090.a(rpl-of0.o)
 .far.text.parent_path_cost
                0x0000000000019302       0x36 contiki-rm090.a(rpl-of0.o)
 .far.text.best_parent
                0x0000000000019338       0x76 contiki-rm090.a(rpl-of0.o)
 .far.text.handle_unicast_dio_timer
                0x00000000000193ae       0x1c contiki-rm090.a(rpl-timers.o)
 .far.text.new_dio_interval
                0x00000000000193ca       0xaa contiki-rm090.a(rpl-timers.o)
 .far.text.set_dao_lifetime_timer
                0x0000000000019474       0x84 contiki-rm090.a(rpl-timers.o)
 .far.text.handle_periodic_timer
                0x00000000000194f8       0x50 contiki-rm090.a(rpl-timers.o)
 .far.text.schedule_dao
                0x0000000000019548       0x72 contiki-rm090.a(rpl-timers.o)
 .far.text.handle_dio_timer
                0x00000000000195ba       0x8c contiki-rm090.a(rpl-timers.o)
 .far.text.handle_dao_timer
                0x0000000000019646       0x64 contiki-rm090.a(rpl-timers.o)
 .far.text.rpl_reset_periodic_timer
                0x00000000000196aa       0x46 contiki-rm090.a(rpl-timers.o)
                0x00000000000196aa                rpl_reset_periodic_timer
 .far.text.rpl_reset_dio_timer
                0x00000000000196f0       0x1c contiki-rm090.a(rpl-timers.o)
                0x00000000000196f0                rpl_reset_dio_timer
 .far.text.rpl_schedule_dao
                0x000000000001970c        0xc contiki-rm090.a(rpl-timers.o)
                0x000000000001970c                rpl_schedule_dao
 .far.text.rpl_schedule_unicast_dio_immediately
                0x0000000000019718       0x16 contiki-rm090.a(rpl-timers.o)
                0x0000000000019718                rpl_schedule_unicast_dio_immediately
 .far.text.get_probing_delay
                0x000000000001972e       0x88 contiki-rm090.a(rpl-timers.o)
                0x000000000001972e                get_probing_delay
 .far.text.get_probing_target
                0x00000000000197b6       0xe2 contiki-rm090.a(rpl-timers.o)
                0x00000000000197b6                get_probing_target
 .far.text.rpl_schedule_probing
                0x0000000000019898       0x26 contiki-rm090.a(rpl-timers.o)
                0x0000000000019898                rpl_schedule_probing
 .far.text.handle_probing_timer
                0x00000000000198be       0x34 contiki-rm090.a(rpl-timers.o)
 .far.text.update_nbr
                0x00000000000198f2       0xda contiki-rm090.a(rpl-nbr-policy.)
 .far.text.handle_periodic_timer
                0x00000000000199cc        0xe contiki-rm090.a(rpl-nbr-policy.)
 .far.text.find_removable_dis
                0x00000000000199da       0x14 contiki-rm090.a(rpl-nbr-policy.)
                0x00000000000199da                find_removable_dis
 .far.text.find_removable_dio
                0x00000000000199ee       0x3c contiki-rm090.a(rpl-nbr-policy.)
                0x00000000000199ee                find_removable_dio
 .far.text.find_removable_dao
                0x0000000000019a2a       0x32 contiki-rm090.a(rpl-nbr-policy.)
                0x0000000000019a2a                find_removable_dao
 .far.text.rpl_nbr_policy_find_removable
                0x0000000000019a5c       0x30 contiki-rm090.a(rpl-nbr-policy.)
                0x0000000000019a5c                rpl_nbr_policy_find_removable
 .far.text.reset
                0x0000000000019a8c        0x2 contiki-rm090.a(rpl-mrhof.o)
 .far.text.update_metric_container
                0x0000000000019a8e        0x6 contiki-rm090.a(rpl-mrhof.o)
 .far.text.parent_link_metric
                0x0000000000019a94       0x10 contiki-rm090.a(rpl-mrhof.o)
 .far.text.parent_has_usable_link
                0x0000000000019aa4       0x14 contiki-rm090.a(rpl-mrhof.o)
 .far.text.best_dag
                0x0000000000019ab8       0x2e contiki-rm090.a(rpl-mrhof.o)
 .far.text.parent_path_cost
                0x0000000000019ae6       0x40 contiki-rm090.a(rpl-mrhof.o)
 .far.text.parent_is_acceptable
                0x0000000000019b26       0x2a contiki-rm090.a(rpl-mrhof.o)
 .far.text.rank_via_parent
                0x0000000000019b50       0x4e contiki-rm090.a(rpl-mrhof.o)
 .far.text.best_parent
                0x0000000000019b9e       0x76 contiki-rm090.a(rpl-mrhof.o)
 .far.text.mac_sequence_is_duplicate
                0x0000000000019c14       0x60 contiki-rm090.a(mac-sequence.o)
                0x0000000000019c14                mac_sequence_is_duplicate
 .far.text.mac_sequence_register_seqno
                0x0000000000019c74       0x76 contiki-rm090.a(mac-sequence.o)
                0x0000000000019c74                mac_sequence_register_seqno

.far.rodata     0x0000000000019cea        0x0
                0x0000000000019cea                . = ALIGN (0x2)
 *(.far.rodata .far.rodata.*)
                0x0000000000019cea                . = ALIGN (0x2)
                0x0000000000019cea                _efartext = .

.far.data       0x0000000000000000        0x0 load address 0x0000000000019cea
                0x0000000000000000                . = ALIGN (0x2)
                0x0000000000000000                __far_data_start = .
 *(.far.data .far.data.*)
                0x0000000000000000                . = ALIGN (0x2)
                0x0000000000000000                _efardata = .
                0x0000000000019cea                __far_data_load_start = LOADADDR (.far.data)
                0x0000000000000000                __far_data_size = SIZEOF (.far.data)

.far.bss        0x0000000000000000        0x0 load address 0x0000000000019cea
                0x0000000000000000                . = ALIGN (0x2)
                0x0000000000000000                __far_bss_start = .
 *(.far.bss .far.bss.*)
                0x0000000000000000                . = ALIGN (0x2)
                0x0000000000000000                __far_bss_end = .
                0x0000000000000000                __far_bss_size = SIZEOF (.far.bss)
                0x0000000000000000                . = ALIGN (0x2)
                0x0000000000000000                _far_end = .

.profiler
 *(.profiler)

.stab           0x0000000000000000    0x2b7a0
 *(.stab)
 .stab          0x0000000000000000     0x2214 udp-server.co
 .stab          0x0000000000002214      0xfcc obj_rm090/contiki-rm090-main.o
                                       0x1818 (size before relaxing)
 .stab          0x00000000000031e0      0x57c contiki-rm090.a(param-repo.o)
                                        0xb10 (size before relaxing)
 .stab          0x000000000000375c      0xe10 contiki-rm090.a(serial-control-)
                                       0x13d4 (size before relaxing)
 .stab          0x000000000000456c      0x264 contiki-rm090.a(contiki-rm090-p)
                                        0x5dc (size before relaxing)
 .stab          0x00000000000047d0      0x4ec contiki-rm090.a(uart1.o)
                                        0xa20 (size before relaxing)
 .stab          0x0000000000004cbc      0x234 contiki-rm090.a(uart1-putchar.o)
                                        0x5a0 (size before relaxing)
 .stab          0x0000000000004ef0      0x864 contiki-rm090.a(sensors.o)
                                        0xbd0 (size before relaxing)
 .stab          0x0000000000005754      0x3b4 contiki-rm090.a(button-sensor.o)
                                        0x738 (size before relaxing)
 .stab          0x0000000000005b08      0x330 contiki-rm090.a(radio-sensor.o)
                                        0x78c (size before relaxing)
 .stab          0x0000000000005e38     0x2370 contiki-rm090.a(cc2520.o)
                                       0x2a9c (size before relaxing)
 .stab          0x00000000000081a8      0x624 contiki-rm090.a(cc2520-arch.o)
                                       0x1710 (size before relaxing)
 .stab          0x00000000000087cc      0x774 contiki-rm090.a(msp430.o)
                                        0xae0 (size before relaxing)
 .stab          0x0000000000008f40      0x954 contiki-rm090.a(clock.o)
                                        0xcc0 (size before relaxing)
 .stab          0x0000000000009894      0x4a4 contiki-rm090.a(leds.o)
                                        0x708 (size before relaxing)
 .stab          0x0000000000009d38      0x33c contiki-rm090.a(leds-arch.o)
                                        0x6a8 (size before relaxing)
 .stab          0x000000000000a074      0x3cc contiki-rm090.a(watchdog.o)
                                        0x738 (size before relaxing)
 .stab          0x000000000000a440      0x390 contiki-rm090.a(rtimer-arch.o)
                                        0x6fc (size before relaxing)
 .stab          0x000000000000a7d0      0x834 contiki-rm090.a(ctimer.o)
                                        0xbb8 (size before relaxing)
 .stab          0x000000000000b004      0x294 contiki-rm090.a(autostart.o)
                                        0x54c (size before relaxing)
 .stab          0x000000000000b298      0x27c contiki-rm090.a(energest.o)
                                        0x51c (size before relaxing)
 .stab          0x000000000000b514      0xa80 contiki-rm090.a(etimer.o)
                                        0xd68 (size before relaxing)
 .stab          0x000000000000bf94      0xb94 contiki-rm090.a(process.o)
                                       0x1044 (size before relaxing)
 .stab          0x000000000000cb28      0x3cc contiki-rm090.a(rtimer.o)
                                        0x6cc (size before relaxing)
 .stab          0x000000000000cef4      0x348 contiki-rm090.a(timer.o)
                                        0x5a0 (size before relaxing)
 .stab          0x000000000000d23c      0x534 contiki-rm090.a(serial-line.o)
                                        0xa50 (size before relaxing)
 .stab          0x000000000000d770      0x7bc contiki-rm090.a(list.o)
                                        0x7c8 (size before relaxing)
 .stab          0x000000000000df2c      0x3f0 contiki-rm090.a(ringbuf.o)
                                        0x648 (size before relaxing)
 .stab          0x000000000000e31c     0x14d0 contiki-rm090.a(uip-ds6.o)
                                       0x2100 (size before relaxing)
 .stab          0x000000000000f7ec     0x12cc contiki-rm090.a(uip-ds6-route.o)
                                       0x1efc (size before relaxing)
 .stab          0x0000000000010ab8     0x2c1c contiki-rm090.a(uip6.o)
                                       0x3930 (size before relaxing)
 .stab          0x00000000000136d4      0xccc contiki-rm090.a(uip-ds6-nbr.o)
                                       0x15b4 (size before relaxing)
 .stab          0x00000000000143a0      0x5a0 contiki-rm090.a(uip-nd6.o)
                                       0x1224 (size before relaxing)
 .stab          0x0000000000014940     0x2b44 contiki-rm090.a(sicslowpan.o)
                                       0x3564 (size before relaxing)
 .stab          0x0000000000017484     0x1230 contiki-rm090.a(tcpip.o)
                                       0x255c (size before relaxing)
 .stab          0x00000000000186b4      0x3d8 contiki-rm090.a(uip-debug.o)
                                        0xbc4 (size before relaxing)
 .stab          0x0000000000018a8c      0x384 contiki-rm090.a(rpl-control.o)
                                       0x1128 (size before relaxing)
 .stab          0x0000000000018e10      0xa5c contiki-rm090.a(rpl-ext-header.)
                                       0x189c (size before relaxing)
 .stab          0x000000000001986c      0xb58 contiki-rm090.a(rpl.o)
                                       0x19a4 (size before relaxing)
 .stab          0x000000000001a3c4     0x36b4 contiki-rm090.a(rpl-dag.o)
                                       0x4380 (size before relaxing)
 .stab          0x000000000001da78      0xa80 contiki-rm090.a(queuebuf.o)
                                       0x1bb4 (size before relaxing)
 .stab          0x000000000001e4f8     0x10f8 contiki-rm090.a(nbr-table.o)
                                       0x1a7c (size before relaxing)
 .stab          0x000000000001f5f0      0xc48 contiki-rm090.a(packetbuf.o)
                                       0x1d94 (size before relaxing)
 .stab          0x0000000000020238      0x2ac contiki-rm090.a(linkaddr.o)
                                        0x6c0 (size before relaxing)
 .stab          0x00000000000204e4      0x7bc contiki-rm090.a(link-stats.o)
                                       0x11a0 (size before relaxing)
 .stab          0x0000000000020ca0      0x900 contiki-rm090.a(framer-802154.o)
                                        0xf24 (size before relaxing)
 .stab          0x00000000000215a0     0x1428 contiki-rm090.a(csma.o)
                                       0x19e0 (size before relaxing)
 .stab          0x00000000000229c8      0xf9c contiki-rm090.a(frame802154.o)
                                       0x17a0 (size before relaxing)
 .stab          0x0000000000023964      0x1f8 contiki-rm090.a(mac.o)
                                        0x504 (size before relaxing)
 .stab          0x0000000000023b5c      0x450 contiki-rm090.a(macstats.o)
                                        0xa08 (size before relaxing)
 .stab          0x0000000000023fac      0x948 contiki-rm090.a(nullrdc.o)
                                       0x12a8 (size before relaxing)
 .stab          0x00000000000248f4      0x39c contiki-rm090.a(nullsec.o)
                                        0xce4 (size before relaxing)
 .stab          0x0000000000024c90      0x450 contiki-rm090.a(base64.o)
                                        0x78c (size before relaxing)
 .stab          0x00000000000250e0      0x27c contiki-rm090.a(spi.o)
                                        0x5e8 (size before relaxing)
 .stab          0x000000000002535c      0x3b4 contiki-rm090.a(stimer.o)
                                        0x60c (size before relaxing)
 .stab          0x0000000000025710      0x5c4 contiki-rm090.a(memb.o)
                                        0xb10 (size before relaxing)
 .stab          0x0000000000025cd4      0x21c contiki-rm090.a(random.o)
                                        0x630 (size before relaxing)
 .stab          0x0000000000025ef0      0xbf4 contiki-rm090.a(uip-icmp6.o)
                                       0x1908 (size before relaxing)
 .stab          0x0000000000026ae4     0x19bc contiki-rm090.a(rpl-icmp6.o)
                                       0x2844 (size before relaxing)
 .stab          0x00000000000284a0      0x978 contiki-rm090.a(rpl-of0.o)
                                       0x1788 (size before relaxing)
 .stab          0x0000000000028e18      0xfc0 contiki-rm090.a(rpl-timers.o)
                                       0x1dc4 (size before relaxing)
 .stab          0x0000000000029dd8      0x960 contiki-rm090.a(rpl-nbr-policy.)
                                       0x1758 (size before relaxing)
 .stab          0x000000000002a738      0x9d8 contiki-rm090.a(rpl-mrhof.o)
                                       0x17e8 (size before relaxing)
 .stab          0x000000000002b110      0x690 contiki-rm090.a(mac-sequence.o)
                                       0x17dc (size before relaxing)

.stabstr        0x0000000000000000    0x1fa41
 *(.stabstr)
 .stabstr       0x0000000000000000    0x1fa41 udp-server.co

.stab.excl
 *(.stab.excl)

.stab.exclstr
 *(.stab.exclstr)

.stab.index
 *(.stab.index)

.stab.indexstr
 *(.stab.indexstr)

.comment        0x0000000000000000       0x30
 *(.comment)
 .comment       0x0000000000000000       0x30 udp-server.co
                                         0x31 (size before relaxing)
 .comment       0x0000000000000000       0x31 obj_rm090/contiki-rm090-main.o
 .comment       0x0000000000000000       0x31 contiki-rm090.a(param-repo.o)
 .comment       0x0000000000000000       0x31 contiki-rm090.a(serial-control-)
 .comment       0x0000000000000000       0x31 contiki-rm090.a(contiki-rm090-p)
 .comment       0x0000000000000000       0x31 contiki-rm090.a(uart1.o)
 .comment       0x0000000000000000       0x31 contiki-rm090.a(uart1-putchar.o)
 .comment       0x0000000000000000       0x31 contiki-rm090.a(sensors.o)
 .comment       0x0000000000000000       0x31 contiki-rm090.a(button-sensor.o)
 .comment       0x0000000000000000       0x31 contiki-rm090.a(radio-sensor.o)
 .comment       0x0000000000000000       0x31 contiki-rm090.a(cc2520.o)
 .comment       0x0000000000000000       0x31 contiki-rm090.a(cc2520-arch.o)
 .comment       0x0000000000000000       0x31 contiki-rm090.a(msp430.o)
 .comment       0x0000000000000000       0x31 contiki-rm090.a(clock.o)
 .comment       0x0000000000000000       0x31 contiki-rm090.a(leds.o)
 .comment       0x0000000000000000       0x31 contiki-rm090.a(leds-arch.o)
 .comment       0x0000000000000000       0x31 contiki-rm090.a(watchdog.o)
 .comment       0x0000000000000000       0x31 contiki-rm090.a(rtimer-arch.o)
 .comment       0x0000000000000000       0x31 contiki-rm090.a(ctimer.o)
 .comment       0x0000000000000000       0x31 contiki-rm090.a(autostart.o)
 .comment       0x0000000000000000       0x31 contiki-rm090.a(energest.o)
 .comment       0x0000000000000000       0x31 contiki-rm090.a(etimer.o)
 .comment       0x0000000000000000       0x31 contiki-rm090.a(process.o)
 .comment       0x0000000000000000       0x31 contiki-rm090.a(rtimer.o)
 .comment       0x0000000000000000       0x31 contiki-rm090.a(timer.o)
 .comment       0x0000000000000000       0x31 contiki-rm090.a(serial-line.o)
 .comment       0x0000000000000000       0x31 contiki-rm090.a(list.o)
 .comment       0x0000000000000000       0x31 contiki-rm090.a(ringbuf.o)
 .comment       0x0000000000000000       0x31 contiki-rm090.a(uip-ds6.o)
 .comment       0x0000000000000000       0x31 contiki-rm090.a(uip-ds6-route.o)
 .comment       0x0000000000000000       0x31 contiki-rm090.a(uip6.o)
 .comment       0x0000000000000000       0x31 contiki-rm090.a(uip-ds6-nbr.o)
 .comment       0x0000000000000000       0x31 contiki-rm090.a(uip-nd6.o)
 .comment       0x0000000000000000       0x31 contiki-rm090.a(sicslowpan.o)
 .comment       0x0000000000000000       0x31 contiki-rm090.a(tcpip.o)
 .comment       0x0000000000000000       0x31 contiki-rm090.a(uip-debug.o)
 .comment       0x0000000000000000       0x31 contiki-rm090.a(rpl-control.o)
 .comment       0x0000000000000000       0x31 contiki-rm090.a(rpl-ext-header.)
 .comment       0x0000000000000000       0x31 contiki-rm090.a(rpl.o)
 .comment       0x0000000000000000       0x31 contiki-rm090.a(rpl-dag.o)
 .comment       0x0000000000000000       0x31 contiki-rm090.a(queuebuf.o)
 .comment       0x0000000000000000       0x31 contiki-rm090.a(nbr-table.o)
 .comment       0x0000000000000000       0x31 contiki-rm090.a(packetbuf.o)
 .comment       0x0000000000000000       0x31 contiki-rm090.a(linkaddr.o)
 .comment       0x0000000000000000       0x31 contiki-rm090.a(link-stats.o)
 .comment       0x0000000000000000       0x31 contiki-rm090.a(framer-802154.o)
 .comment       0x0000000000000000       0x31 contiki-rm090.a(csma.o)
 .comment       0x0000000000000000       0x31 contiki-rm090.a(frame802154.o)
 .comment       0x0000000000000000       0x31 contiki-rm090.a(mac.o)
 .comment       0x0000000000000000       0x31 contiki-rm090.a(macstats.o)
 .comment       0x0000000000000000       0x31 contiki-rm090.a(nullrdc.o)
 .comment       0x0000000000000000       0x31 contiki-rm090.a(nullsec.o)
 .comment       0x0000000000000000       0x31 contiki-rm090.a(base64.o)
 .comment       0x0000000000000000       0x31 contiki-rm090.a(spi.o)
 .comment       0x0000000000000000       0x31 contiki-rm090.a(stimer.o)
 .comment       0x0000000000000000       0x31 contiki-rm090.a(memb.o)
 .comment       0x0000000000000000       0x31 contiki-rm090.a(random.o)
 .comment       0x0000000000000000       0x31 contiki-rm090.a(uip-icmp6.o)
 .comment       0x0000000000000000       0x31 contiki-rm090.a(rpl-icmp6.o)
 .comment       0x0000000000000000       0x31 contiki-rm090.a(rpl-of0.o)
 .comment       0x0000000000000000       0x31 contiki-rm090.a(rpl-timers.o)
 .comment       0x0000000000000000       0x31 contiki-rm090.a(rpl-nbr-policy.)
 .comment       0x0000000000000000       0x31 contiki-rm090.a(rpl-mrhof.o)
 .comment       0x0000000000000000       0x31 contiki-rm090.a(mac-sequence.o)
 .comment       0x0000000000000000       0x31 /opt/msp430-47-expr/bin/../lib/gcc/msp430/4.7.0/../../../../msp430/lib/mcpu-430x/mmpy-16/msr20/mc20/libc.a(atol.o)
 .comment       0x0000000000000000       0x31 /opt/msp430-47-expr/bin/../lib/gcc/msp430/4.7.0/../../../../msp430/lib/mcpu-430x/mmpy-16/msr20/mc20/libc.a(atoi.o)
 .comment       0x0000000000000000       0x31 /opt/msp430-47-expr/bin/../lib/gcc/msp430/4.7.0/../../../../msp430/lib/mcpu-430x/mmpy-16/msr20/mc20/libc.a(strtol.o)
 .comment       0x0000000000000000       0x31 /opt/msp430-47-expr/bin/../lib/gcc/msp430/4.7.0/../../../../msp430/lib/mcpu-430x/mmpy-16/msr20/mc20/libc.a(printf.o)
 .comment       0x0000000000000000       0x31 /opt/msp430-47-expr/bin/../lib/gcc/msp430/4.7.0/../../../../msp430/lib/mcpu-430x/mmpy-16/msr20/mc20/libc.a(vuprintf.o)
 .comment       0x0000000000000000       0x31 /opt/msp430-47-expr/bin/../lib/gcc/msp430/4.7.0/../../../../msp430/lib/mcpu-430x/mmpy-16/msr20/mc20/libc.a(puts.o)
 .comment       0x0000000000000000       0x31 /opt/msp430-47-expr/bin/../lib/gcc/msp430/4.7.0/../../../../msp430/lib/mcpu-430x/mmpy-16/msr20/mc20/libc.a(rand.o)
 .comment       0x0000000000000000       0x31 /opt/msp430-47-expr/bin/../lib/gcc/msp430/4.7.0/../../../../msp430/lib/mcpu-430x/mmpy-16/msr20/mc20/libc.a(strncmp.o)
 .comment       0x0000000000000000       0x31 /opt/msp430-47-expr/bin/../lib/gcc/msp430/4.7.0/../../../../msp430/lib/mcpu-430x/mmpy-16/msr20/mc20/libc.a(memcmp.o)
 .comment       0x0000000000000000       0x31 /opt/msp430-47-expr/bin/../lib/gcc/msp430/4.7.0/../../../../msp430/lib/mcpu-430x/mmpy-16/msr20/mc20/libc.a(memcpy.o)
 .comment       0x0000000000000000       0x31 /opt/msp430-47-expr/bin/../lib/gcc/msp430/4.7.0/../../../../msp430/lib/mcpu-430x/mmpy-16/msr20/mc20/libc.a(memmove.o)
 .comment       0x0000000000000000       0x31 /opt/msp430-47-expr/bin/../lib/gcc/msp430/4.7.0/../../../../msp430/lib/mcpu-430x/mmpy-16/msr20/mc20/libc.a(memset.o)
 .comment       0x0000000000000000       0x31 /opt/msp430-47-expr/bin/../lib/gcc/msp430/4.7.0/../../../../msp430/lib/mcpu-430x/mmpy-16/msr20/mc20/libc.a(errno.o)

.debug
 *(.debug)

.line
 *(.line)

.debug_srcinfo
 *(.debug_srcinfo)

.debug_sfnames
 *(.debug_sfnames)

.debug_aranges  0x0000000000000000      0x358
 *(.debug_aranges)
 .debug_aranges
                0x0000000000000000       0x20 /opt/msp430-47-expr/bin/../lib/gcc/msp430/4.7.0/mcpu-430x/mmpy-16/msr20/mc20/crt0ivtbl64.o
 .debug_aranges
                0x0000000000000020       0x20 /opt/msp430-47-expr/bin/../lib/gcc/msp430/4.7.0/mcpu-430x/mmpy-16/msr20/mc20/libgcc.a(_udivmod16.o)
 .debug_aranges
                0x0000000000000040       0x20 /opt/msp430-47-expr/bin/../lib/gcc/msp430/4.7.0/mcpu-430x/mmpy-16/msr20/mc20/libgcc.a(_divmod16.o)
 .debug_aranges
                0x0000000000000060       0x20 /opt/msp430-47-expr/bin/../lib/gcc/msp430/4.7.0/mcpu-430x/mmpy-16/msr20/mc20/libgcc.a(_udivmod32.o)
 .debug_aranges
                0x0000000000000080       0x20 /opt/msp430-47-expr/bin/../lib/gcc/msp430/4.7.0/mcpu-430x/mmpy-16/msr20/mc20/libgcc.a(_divmod32.o)
 .debug_aranges
                0x00000000000000a0       0x20 /opt/msp430-47-expr/bin/../lib/gcc/msp430/4.7.0/../../../../msp430/lib/mcpu-430x/mmpy-16/msr20/mc20/libc.a(atol.o)
 .debug_aranges
                0x00000000000000c0       0x20 /opt/msp430-47-expr/bin/../lib/gcc/msp430/4.7.0/../../../../msp430/lib/mcpu-430x/mmpy-16/msr20/mc20/libc.a(atoi.o)
 .debug_aranges
                0x00000000000000e0       0x20 /opt/msp430-47-expr/bin/../lib/gcc/msp430/4.7.0/../../../../msp430/lib/mcpu-430x/mmpy-16/msr20/mc20/libc.a(strtol.o)
 .debug_aranges
                0x0000000000000100       0x28 /opt/msp430-47-expr/bin/../lib/gcc/msp430/4.7.0/../../../../msp430/lib/mcpu-430x/mmpy-16/msr20/mc20/libc.a(printf.o)
 .debug_aranges
                0x0000000000000128       0x28 /opt/msp430-47-expr/bin/../lib/gcc/msp430/4.7.0/../../../../msp430/lib/mcpu-430x/mmpy-16/msr20/mc20/libc.a(vuprintf.o)
 .debug_aranges
                0x0000000000000150       0x20 /opt/msp430-47-expr/bin/../lib/gcc/msp430/4.7.0/../../../../msp430/lib/mcpu-430x/mmpy-16/msr20/mc20/libc.a(puts.o)
 .debug_aranges
                0x0000000000000170       0x30 /opt/msp430-47-expr/bin/../lib/gcc/msp430/4.7.0/../../../../msp430/lib/mcpu-430x/mmpy-16/msr20/mc20/libc.a(rand.o)
 .debug_aranges
                0x00000000000001a0       0x20 /opt/msp430-47-expr/bin/../lib/gcc/msp430/4.7.0/../../../../msp430/lib/mcpu-430x/mmpy-16/msr20/mc20/libc.a(strncmp.o)
 .debug_aranges
                0x00000000000001c0       0x20 /opt/msp430-47-expr/bin/../lib/gcc/msp430/4.7.0/../../../../msp430/lib/mcpu-430x/mmpy-16/msr20/mc20/libc.a(memcmp.o)
 .debug_aranges
                0x00000000000001e0       0x20 /opt/msp430-47-expr/bin/../lib/gcc/msp430/4.7.0/../../../../msp430/lib/mcpu-430x/mmpy-16/msr20/mc20/libc.a(memcpy.o)
 .debug_aranges
                0x0000000000000200       0x20 /opt/msp430-47-expr/bin/../lib/gcc/msp430/4.7.0/../../../../msp430/lib/mcpu-430x/mmpy-16/msr20/mc20/libc.a(memmove.o)
 .debug_aranges
                0x0000000000000220       0x20 /opt/msp430-47-expr/bin/../lib/gcc/msp430/4.7.0/../../../../msp430/lib/mcpu-430x/mmpy-16/msr20/mc20/libc.a(memset.o)
 .debug_aranges
                0x0000000000000240       0x18 /opt/msp430-47-expr/bin/../lib/gcc/msp430/4.7.0/../../../../msp430/lib/mcpu-430x/mmpy-16/msr20/mc20/libc.a(errno.o)
 .debug_aranges
                0x0000000000000258       0x20 /opt/msp430-47-expr/bin/../lib/gcc/msp430/4.7.0/mcpu-430x/mmpy-16/msr20/mc20/libgcc.a(_mulsi3.o)
 .debug_aranges
                0x0000000000000278       0x20 /opt/msp430-47-expr/bin/../lib/gcc/msp430/4.7.0/mcpu-430x/mmpy-16/msr20/mc20/libgcc.a(_udivmod64.o)
 .debug_aranges
                0x0000000000000298       0x20 /opt/msp430-47-expr/bin/../lib/gcc/msp430/4.7.0/mcpu-430x/mmpy-16/msr20/mc20/libcrt0.a(__watchdog_support.o)
 .debug_aranges
                0x00000000000002b8       0x20 /opt/msp430-47-expr/bin/../lib/gcc/msp430/4.7.0/mcpu-430x/mmpy-16/msr20/mc20/libcrt0.a(__init_stack.o)
 .debug_aranges
                0x00000000000002d8       0x20 /opt/msp430-47-expr/bin/../lib/gcc/msp430/4.7.0/mcpu-430x/mmpy-16/msr20/mc20/libcrt0.a(_copy_data.o)
 .debug_aranges
                0x00000000000002f8       0x20 /opt/msp430-47-expr/bin/../lib/gcc/msp430/4.7.0/mcpu-430x/mmpy-16/msr20/mc20/libcrt0.a(_clear_bss.o)
 .debug_aranges
                0x0000000000000318       0x20 /opt/msp430-47-expr/bin/../lib/gcc/msp430/4.7.0/mcpu-430x/mmpy-16/msr20/mc20/libcrt0.a(_endless_loop__.o)
 .debug_aranges
                0x0000000000000338       0x20 /opt/msp430-47-expr/bin/../lib/gcc/msp430/4.7.0/mcpu-430x/mmpy-16/msr20/mc20/libcrt0.a(_unexpected_.o)

.debug_pubnames
 *(.debug_pubnames)

.debug_info     0x0000000000000000     0x1e61
 *(.debug_info)
 .debug_info    0x0000000000000000       0xd0 /opt/msp430-47-expr/bin/../lib/gcc/msp430/4.7.0/mcpu-430x/mmpy-16/msr20/mc20/crt0ivtbl64.o
 .debug_info    0x00000000000000d0       0xcd /opt/msp430-47-expr/bin/../lib/gcc/msp430/4.7.0/mcpu-430x/mmpy-16/msr20/mc20/libgcc.a(_udivmod16.o)
 .debug_info    0x000000000000019d       0xcd /opt/msp430-47-expr/bin/../lib/gcc/msp430/4.7.0/mcpu-430x/mmpy-16/msr20/mc20/libgcc.a(_divmod16.o)
 .debug_info    0x000000000000026a       0xcd /opt/msp430-47-expr/bin/../lib/gcc/msp430/4.7.0/mcpu-430x/mmpy-16/msr20/mc20/libgcc.a(_udivmod32.o)
 .debug_info    0x0000000000000337       0xcd /opt/msp430-47-expr/bin/../lib/gcc/msp430/4.7.0/mcpu-430x/mmpy-16/msr20/mc20/libgcc.a(_divmod32.o)
 .debug_info    0x0000000000000404       0xfd /opt/msp430-47-expr/bin/../lib/gcc/msp430/4.7.0/../../../../msp430/lib/mcpu-430x/mmpy-16/msr20/mc20/libc.a(atol.o)
 .debug_info    0x0000000000000501       0xce /opt/msp430-47-expr/bin/../lib/gcc/msp430/4.7.0/../../../../msp430/lib/mcpu-430x/mmpy-16/msr20/mc20/libc.a(atoi.o)
 .debug_info    0x00000000000005cf      0x220 /opt/msp430-47-expr/bin/../lib/gcc/msp430/4.7.0/../../../../msp430/lib/mcpu-430x/mmpy-16/msr20/mc20/libc.a(strtol.o)
 .debug_info    0x00000000000007ef      0x18d /opt/msp430-47-expr/bin/../lib/gcc/msp430/4.7.0/../../../../msp430/lib/mcpu-430x/mmpy-16/msr20/mc20/libc.a(printf.o)
 .debug_info    0x000000000000097c      0x673 /opt/msp430-47-expr/bin/../lib/gcc/msp430/4.7.0/../../../../msp430/lib/mcpu-430x/mmpy-16/msr20/mc20/libc.a(vuprintf.o)
 .debug_info    0x0000000000000fef       0xe1 /opt/msp430-47-expr/bin/../lib/gcc/msp430/4.7.0/../../../../msp430/lib/mcpu-430x/mmpy-16/msr20/mc20/libc.a(puts.o)
 .debug_info    0x00000000000010d0      0x172 /opt/msp430-47-expr/bin/../lib/gcc/msp430/4.7.0/../../../../msp430/lib/mcpu-430x/mmpy-16/msr20/mc20/libc.a(rand.o)
 .debug_info    0x0000000000001242       0xd8 /opt/msp430-47-expr/bin/../lib/gcc/msp430/4.7.0/../../../../msp430/lib/mcpu-430x/mmpy-16/msr20/mc20/libc.a(strncmp.o)
 .debug_info    0x000000000000131a       0xff /opt/msp430-47-expr/bin/../lib/gcc/msp430/4.7.0/../../../../msp430/lib/mcpu-430x/mmpy-16/msr20/mc20/libc.a(memcmp.o)
 .debug_info    0x0000000000001419      0x144 /opt/msp430-47-expr/bin/../lib/gcc/msp430/4.7.0/../../../../msp430/lib/mcpu-430x/mmpy-16/msr20/mc20/libc.a(memcpy.o)
 .debug_info    0x000000000000155d      0x144 /opt/msp430-47-expr/bin/../lib/gcc/msp430/4.7.0/../../../../msp430/lib/mcpu-430x/mmpy-16/msr20/mc20/libc.a(memmove.o)
 .debug_info    0x00000000000016a1      0x12d /opt/msp430-47-expr/bin/../lib/gcc/msp430/4.7.0/../../../../msp430/lib/mcpu-430x/mmpy-16/msr20/mc20/libc.a(memset.o)
 .debug_info    0x00000000000017ce       0x37 /opt/msp430-47-expr/bin/../lib/gcc/msp430/4.7.0/../../../../msp430/lib/mcpu-430x/mmpy-16/msr20/mc20/libc.a(errno.o)
 .debug_info    0x0000000000001805       0xcd /opt/msp430-47-expr/bin/../lib/gcc/msp430/4.7.0/mcpu-430x/mmpy-16/msr20/mc20/libgcc.a(_mulsi3.o)
 .debug_info    0x00000000000018d2       0xcd /opt/msp430-47-expr/bin/../lib/gcc/msp430/4.7.0/mcpu-430x/mmpy-16/msr20/mc20/libgcc.a(_udivmod64.o)
 .debug_info    0x000000000000199f       0xcb /opt/msp430-47-expr/bin/../lib/gcc/msp430/4.7.0/mcpu-430x/mmpy-16/msr20/mc20/libcrt0.a(__watchdog_support.o)
 .debug_info    0x0000000000001a6a       0xcb /opt/msp430-47-expr/bin/../lib/gcc/msp430/4.7.0/mcpu-430x/mmpy-16/msr20/mc20/libcrt0.a(__init_stack.o)
 .debug_info    0x0000000000001b35       0xcb /opt/msp430-47-expr/bin/../lib/gcc/msp430/4.7.0/mcpu-430x/mmpy-16/msr20/mc20/libcrt0.a(_copy_data.o)
 .debug_info    0x0000000000001c00       0xcb /opt/msp430-47-expr/bin/../lib/gcc/msp430/4.7.0/mcpu-430x/mmpy-16/msr20/mc20/libcrt0.a(_clear_bss.o)
 .debug_info    0x0000000000001ccb       0xcb /opt/msp430-47-expr/bin/../lib/gcc/msp430/4.7.0/mcpu-430x/mmpy-16/msr20/mc20/libcrt0.a(_endless_loop__.o)
 .debug_info    0x0000000000001d96       0xcb /opt/msp430-47-expr/bin/../lib/gcc/msp430/4.7.0/mcpu-430x/mmpy-16/msr20/mc20/libcrt0.a(_unexpected_.o)
 *(.gnu.linkonce.wi.*)

.debug_abbrev   0x0000000000000000      0xb57
 *(.debug_abbrev)
 .debug_abbrev  0x0000000000000000       0x14 /opt/msp430-47-expr/bin/../lib/gcc/msp430/4.7.0/mcpu-430x/mmpy-16/msr20/mc20/crt0ivtbl64.o
 .debug_abbrev  0x0000000000000014       0x14 /opt/msp430-47-expr/bin/../lib/gcc/msp430/4.7.0/mcpu-430x/mmpy-16/msr20/mc20/libgcc.a(_udivmod16.o)
 .debug_abbrev  0x0000000000000028       0x14 /opt/msp430-47-expr/bin/../lib/gcc/msp430/4.7.0/mcpu-430x/mmpy-16/msr20/mc20/libgcc.a(_divmod16.o)
 .debug_abbrev  0x000000000000003c       0x14 /opt/msp430-47-expr/bin/../lib/gcc/msp430/4.7.0/mcpu-430x/mmpy-16/msr20/mc20/libgcc.a(_udivmod32.o)
 .debug_abbrev  0x0000000000000050       0x14 /opt/msp430-47-expr/bin/../lib/gcc/msp430/4.7.0/mcpu-430x/mmpy-16/msr20/mc20/libgcc.a(_divmod32.o)
 .debug_abbrev  0x0000000000000064       0x9a /opt/msp430-47-expr/bin/../lib/gcc/msp430/4.7.0/../../../../msp430/lib/mcpu-430x/mmpy-16/msr20/mc20/libc.a(atol.o)
 .debug_abbrev  0x00000000000000fe       0x83 /opt/msp430-47-expr/bin/../lib/gcc/msp430/4.7.0/../../../../msp430/lib/mcpu-430x/mmpy-16/msr20/mc20/libc.a(atoi.o)
 .debug_abbrev  0x0000000000000181      0x12d /opt/msp430-47-expr/bin/../lib/gcc/msp430/4.7.0/../../../../msp430/lib/mcpu-430x/mmpy-16/msr20/mc20/libc.a(strtol.o)
 .debug_abbrev  0x00000000000002ae       0xfa /opt/msp430-47-expr/bin/../lib/gcc/msp430/4.7.0/../../../../msp430/lib/mcpu-430x/mmpy-16/msr20/mc20/libc.a(printf.o)
 .debug_abbrev  0x00000000000003a8      0x23e /opt/msp430-47-expr/bin/../lib/gcc/msp430/4.7.0/../../../../msp430/lib/mcpu-430x/mmpy-16/msr20/mc20/libc.a(vuprintf.o)
 .debug_abbrev  0x00000000000005e6       0xa3 /opt/msp430-47-expr/bin/../lib/gcc/msp430/4.7.0/../../../../msp430/lib/mcpu-430x/mmpy-16/msr20/mc20/libc.a(puts.o)
 .debug_abbrev  0x0000000000000689       0xfb /opt/msp430-47-expr/bin/../lib/gcc/msp430/4.7.0/../../../../msp430/lib/mcpu-430x/mmpy-16/msr20/mc20/libc.a(rand.o)
 .debug_abbrev  0x0000000000000784       0x72 /opt/msp430-47-expr/bin/../lib/gcc/msp430/4.7.0/../../../../msp430/lib/mcpu-430x/mmpy-16/msr20/mc20/libc.a(strncmp.o)
 .debug_abbrev  0x00000000000007f6       0x9e /opt/msp430-47-expr/bin/../lib/gcc/msp430/4.7.0/../../../../msp430/lib/mcpu-430x/mmpy-16/msr20/mc20/libc.a(memcmp.o)
 .debug_abbrev  0x0000000000000894       0xab /opt/msp430-47-expr/bin/../lib/gcc/msp430/4.7.0/../../../../msp430/lib/mcpu-430x/mmpy-16/msr20/mc20/libc.a(memcpy.o)
 .debug_abbrev  0x000000000000093f       0xab /opt/msp430-47-expr/bin/../lib/gcc/msp430/4.7.0/../../../../msp430/lib/mcpu-430x/mmpy-16/msr20/mc20/libc.a(memmove.o)
 .debug_abbrev  0x00000000000009ea       0xa1 /opt/msp430-47-expr/bin/../lib/gcc/msp430/4.7.0/../../../../msp430/lib/mcpu-430x/mmpy-16/msr20/mc20/libc.a(memset.o)
 .debug_abbrev  0x0000000000000a8b       0x2c /opt/msp430-47-expr/bin/../lib/gcc/msp430/4.7.0/../../../../msp430/lib/mcpu-430x/mmpy-16/msr20/mc20/libc.a(errno.o)
 .debug_abbrev  0x0000000000000ab7       0x14 /opt/msp430-47-expr/bin/../lib/gcc/msp430/4.7.0/mcpu-430x/mmpy-16/msr20/mc20/libgcc.a(_mulsi3.o)
 .debug_abbrev  0x0000000000000acb       0x14 /opt/msp430-47-expr/bin/../lib/gcc/msp430/4.7.0/mcpu-430x/mmpy-16/msr20/mc20/libgcc.a(_udivmod64.o)
 .debug_abbrev  0x0000000000000adf       0x14 /opt/msp430-47-expr/bin/../lib/gcc/msp430/4.7.0/mcpu-430x/mmpy-16/msr20/mc20/libcrt0.a(__watchdog_support.o)
 .debug_abbrev  0x0000000000000af3       0x14 /opt/msp430-47-expr/bin/../lib/gcc/msp430/4.7.0/mcpu-430x/mmpy-16/msr20/mc20/libcrt0.a(__init_stack.o)
 .debug_abbrev  0x0000000000000b07       0x14 /opt/msp430-47-expr/bin/../lib/gcc/msp430/4.7.0/mcpu-430x/mmpy-16/msr20/mc20/libcrt0.a(_copy_data.o)
 .debug_abbrev  0x0000000000000b1b       0x14 /opt/msp430-47-expr/bin/../lib/gcc/msp430/4.7.0/mcpu-430x/mmpy-16/msr20/mc20/libcrt0.a(_clear_bss.o)
 .debug_abbrev  0x0000000000000b2f       0x14 /opt/msp430-47-expr/bin/../lib/gcc/msp430/4.7.0/mcpu-430x/mmpy-16/msr20/mc20/libcrt0.a(_endless_loop__.o)
 .debug_abbrev  0x0000000000000b43       0x14 /opt/msp430-47-expr/bin/../lib/gcc/msp430/4.7.0/mcpu-430x/mmpy-16/msr20/mc20/libcrt0.a(_unexpected_.o)

.debug_line     0x0000000000000000     0x129c
 *(.debug_line)
 .debug_line    0x0000000000000000       0x65 /opt/msp430-47-expr/bin/../lib/gcc/msp430/4.7.0/mcpu-430x/mmpy-16/msr20/mc20/crt0ivtbl64.o
 .debug_line    0x0000000000000065       0x71 /opt/msp430-47-expr/bin/../lib/gcc/msp430/4.7.0/mcpu-430x/mmpy-16/msr20/mc20/libgcc.a(_udivmod16.o)
 .debug_line    0x00000000000000d6       0x7c /opt/msp430-47-expr/bin/../lib/gcc/msp430/4.7.0/mcpu-430x/mmpy-16/msr20/mc20/libgcc.a(_divmod16.o)
 .debug_line    0x0000000000000152       0x7c /opt/msp430-47-expr/bin/../lib/gcc/msp430/4.7.0/mcpu-430x/mmpy-16/msr20/mc20/libgcc.a(_udivmod32.o)
 .debug_line    0x00000000000001ce       0x85 /opt/msp430-47-expr/bin/../lib/gcc/msp430/4.7.0/mcpu-430x/mmpy-16/msr20/mc20/libgcc.a(_divmod32.o)
 .debug_line    0x0000000000000253       0x58 /opt/msp430-47-expr/bin/../lib/gcc/msp430/4.7.0/../../../../msp430/lib/mcpu-430x/mmpy-16/msr20/mc20/libc.a(atol.o)
 .debug_line    0x00000000000002ab       0x70 /opt/msp430-47-expr/bin/../lib/gcc/msp430/4.7.0/../../../../msp430/lib/mcpu-430x/mmpy-16/msr20/mc20/libc.a(atoi.o)
 .debug_line    0x000000000000031b      0x108 /opt/msp430-47-expr/bin/../lib/gcc/msp430/4.7.0/../../../../msp430/lib/mcpu-430x/mmpy-16/msr20/mc20/libc.a(strtol.o)
 .debug_line    0x0000000000000423       0xe8 /opt/msp430-47-expr/bin/../lib/gcc/msp430/4.7.0/../../../../msp430/lib/mcpu-430x/mmpy-16/msr20/mc20/libc.a(printf.o)
 .debug_line    0x000000000000050b      0x397 /opt/msp430-47-expr/bin/../lib/gcc/msp430/4.7.0/../../../../msp430/lib/mcpu-430x/mmpy-16/msr20/mc20/libc.a(vuprintf.o)
 .debug_line    0x00000000000008a2       0x67 /opt/msp430-47-expr/bin/../lib/gcc/msp430/4.7.0/../../../../msp430/lib/mcpu-430x/mmpy-16/msr20/mc20/libc.a(puts.o)
 .debug_line    0x0000000000000909       0x6e /opt/msp430-47-expr/bin/../lib/gcc/msp430/4.7.0/../../../../msp430/lib/mcpu-430x/mmpy-16/msr20/mc20/libc.a(rand.o)
 .debug_line    0x0000000000000977       0xcc /opt/msp430-47-expr/bin/../lib/gcc/msp430/4.7.0/../../../../msp430/lib/mcpu-430x/mmpy-16/msr20/mc20/libc.a(strncmp.o)
 .debug_line    0x0000000000000a43       0xcc /opt/msp430-47-expr/bin/../lib/gcc/msp430/4.7.0/../../../../msp430/lib/mcpu-430x/mmpy-16/msr20/mc20/libc.a(memcmp.o)
 .debug_line    0x0000000000000b0f      0x155 /opt/msp430-47-expr/bin/../lib/gcc/msp430/4.7.0/../../../../msp430/lib/mcpu-430x/mmpy-16/msr20/mc20/libc.a(memcpy.o)
 .debug_line    0x0000000000000c64      0x154 /opt/msp430-47-expr/bin/../lib/gcc/msp430/4.7.0/../../../../msp430/lib/mcpu-430x/mmpy-16/msr20/mc20/libc.a(memmove.o)
 .debug_line    0x0000000000000db8      0x12f /opt/msp430-47-expr/bin/../lib/gcc/msp430/4.7.0/../../../../msp430/lib/mcpu-430x/mmpy-16/msr20/mc20/libc.a(memset.o)
 .debug_line    0x0000000000000ee7       0x31 /opt/msp430-47-expr/bin/../lib/gcc/msp430/4.7.0/../../../../msp430/lib/mcpu-430x/mmpy-16/msr20/mc20/libc.a(errno.o)
 .debug_line    0x0000000000000f18       0x75 /opt/msp430-47-expr/bin/../lib/gcc/msp430/4.7.0/mcpu-430x/mmpy-16/msr20/mc20/libgcc.a(_mulsi3.o)
 .debug_line    0x0000000000000f8d       0xba /opt/msp430-47-expr/bin/../lib/gcc/msp430/4.7.0/mcpu-430x/mmpy-16/msr20/mc20/libgcc.a(_udivmod64.o)
 .debug_line    0x0000000000001047       0x63 /opt/msp430-47-expr/bin/../lib/gcc/msp430/4.7.0/mcpu-430x/mmpy-16/msr20/mc20/libcrt0.a(__watchdog_support.o)
 .debug_line    0x00000000000010aa       0x61 /opt/msp430-47-expr/bin/../lib/gcc/msp430/4.7.0/mcpu-430x/mmpy-16/msr20/mc20/libcrt0.a(__init_stack.o)
 .debug_line    0x000000000000110b       0x67 /opt/msp430-47-expr/bin/../lib/gcc/msp430/4.7.0/mcpu-430x/mmpy-16/msr20/mc20/libcrt0.a(_copy_data.o)
 .debug_line    0x0000000000001172       0x67 /opt/msp430-47-expr/bin/../lib/gcc/msp430/4.7.0/mcpu-430x/mmpy-16/msr20/mc20/libcrt0.a(_clear_bss.o)
 .debug_line    0x00000000000011d9       0x62 /opt/msp430-47-expr/bin/../lib/gcc/msp430/4.7.0/mcpu-430x/mmpy-16/msr20/mc20/libcrt0.a(_endless_loop__.o)
 .debug_line    0x000000000000123b       0x61 /opt/msp430-47-expr/bin/../lib/gcc/msp430/4.7.0/mcpu-430x/mmpy-16/msr20/mc20/libcrt0.a(_unexpected_.o)

.debug_frame    0x0000000000000000      0x2a4
 *(.debug_frame)
 .debug_frame   0x0000000000000000       0x24 /opt/msp430-47-expr/bin/../lib/gcc/msp430/4.7.0/../../../../msp430/lib/mcpu-430x/mmpy-16/msr20/mc20/libc.a(atol.o)
 .debug_frame   0x0000000000000024       0x24 /opt/msp430-47-expr/bin/../lib/gcc/msp430/4.7.0/../../../../msp430/lib/mcpu-430x/mmpy-16/msr20/mc20/libc.a(atoi.o)
 .debug_frame   0x0000000000000048       0x40 /opt/msp430-47-expr/bin/../lib/gcc/msp430/4.7.0/../../../../msp430/lib/mcpu-430x/mmpy-16/msr20/mc20/libc.a(strtol.o)
 .debug_frame   0x0000000000000088       0x34 /opt/msp430-47-expr/bin/../lib/gcc/msp430/4.7.0/../../../../msp430/lib/mcpu-430x/mmpy-16/msr20/mc20/libc.a(printf.o)
 .debug_frame   0x00000000000000bc       0x88 /opt/msp430-47-expr/bin/../lib/gcc/msp430/4.7.0/../../../../msp430/lib/mcpu-430x/mmpy-16/msr20/mc20/libc.a(vuprintf.o)
 .debug_frame   0x0000000000000144       0x2c /opt/msp430-47-expr/bin/../lib/gcc/msp430/4.7.0/../../../../msp430/lib/mcpu-430x/mmpy-16/msr20/mc20/libc.a(puts.o)
 .debug_frame   0x0000000000000170       0x4c /opt/msp430-47-expr/bin/../lib/gcc/msp430/4.7.0/../../../../msp430/lib/mcpu-430x/mmpy-16/msr20/mc20/libc.a(rand.o)
 .debug_frame   0x00000000000001bc       0x2c /opt/msp430-47-expr/bin/../lib/gcc/msp430/4.7.0/../../../../msp430/lib/mcpu-430x/mmpy-16/msr20/mc20/libc.a(strncmp.o)
 .debug_frame   0x00000000000001e8       0x2c /opt/msp430-47-expr/bin/../lib/gcc/msp430/4.7.0/../../../../msp430/lib/mcpu-430x/mmpy-16/msr20/mc20/libc.a(memcmp.o)
 .debug_frame   0x0000000000000214       0x30 /opt/msp430-47-expr/bin/../lib/gcc/msp430/4.7.0/../../../../msp430/lib/mcpu-430x/mmpy-16/msr20/mc20/libc.a(memcpy.o)
 .debug_frame   0x0000000000000244       0x30 /opt/msp430-47-expr/bin/../lib/gcc/msp430/4.7.0/../../../../msp430/lib/mcpu-430x/mmpy-16/msr20/mc20/libc.a(memmove.o)
 .debug_frame   0x0000000000000274       0x30 /opt/msp430-47-expr/bin/../lib/gcc/msp430/4.7.0/../../../../msp430/lib/mcpu-430x/mmpy-16/msr20/mc20/libc.a(memset.o)

.debug_str      0x0000000000000000      0x4e7
 *(.debug_str)
 .debug_str     0x0000000000000000       0xf0 /opt/msp430-47-expr/bin/../lib/gcc/msp430/4.7.0/../../../../msp430/lib/mcpu-430x/mmpy-16/msr20/mc20/libc.a(atol.o)
                                        0x129 (size before relaxing)
 .debug_str     0x00000000000000f0       0x1a /opt/msp430-47-expr/bin/../lib/gcc/msp430/4.7.0/../../../../msp430/lib/mcpu-430x/mmpy-16/msr20/mc20/libc.a(atoi.o)
                                        0x127 (size before relaxing)
 .debug_str     0x000000000000010a       0x52 /opt/msp430-47-expr/bin/../lib/gcc/msp430/4.7.0/../../../../msp430/lib/mcpu-430x/mmpy-16/msr20/mc20/libc.a(strtol.o)
                                        0x166 (size before relaxing)
 .debug_str     0x000000000000015c       0x49 /opt/msp430-47-expr/bin/../lib/gcc/msp430/4.7.0/../../../../msp430/lib/mcpu-430x/mmpy-16/msr20/mc20/libc.a(printf.o)
                                        0x165 (size before relaxing)
 .debug_str     0x00000000000001a5      0x22b /opt/msp430-47-expr/bin/../lib/gcc/msp430/4.7.0/../../../../msp430/lib/mcpu-430x/mmpy-16/msr20/mc20/libc.a(vuprintf.o)
                                        0x3cb (size before relaxing)
 .debug_str     0x00000000000003d0       0x1d /opt/msp430-47-expr/bin/../lib/gcc/msp430/4.7.0/../../../../msp430/lib/mcpu-430x/mmpy-16/msr20/mc20/libc.a(puts.o)
                                        0x12a (size before relaxing)
 .debug_str     0x00000000000003ed       0x2f /opt/msp430-47-expr/bin/../lib/gcc/msp430/4.7.0/../../../../msp430/lib/mcpu-430x/mmpy-16/msr20/mc20/libc.a(rand.o)
                                        0x141 (size before relaxing)
 .debug_str     0x000000000000041c       0x22 /opt/msp430-47-expr/bin/../lib/gcc/msp430/4.7.0/../../../../msp430/lib/mcpu-430x/mmpy-16/msr20/mc20/libc.a(strncmp.o)
                                        0x12f (size before relaxing)
 .debug_str     0x000000000000043e       0x19 /opt/msp430-47-expr/bin/../lib/gcc/msp430/4.7.0/../../../../msp430/lib/mcpu-430x/mmpy-16/msr20/mc20/libc.a(memcmp.o)
                                        0x12d (size before relaxing)
 .debug_str     0x0000000000000457       0x3e /opt/msp430-47-expr/bin/../lib/gcc/msp430/4.7.0/../../../../msp430/lib/mcpu-430x/mmpy-16/msr20/mc20/libc.a(memcpy.o)
                                        0x15b (size before relaxing)
 .debug_str     0x0000000000000495       0x1b /opt/msp430-47-expr/bin/../lib/gcc/msp430/4.7.0/../../../../msp430/lib/mcpu-430x/mmpy-16/msr20/mc20/libc.a(memmove.o)
                                        0x15d (size before relaxing)
 .debug_str     0x00000000000004b0       0x26 /opt/msp430-47-expr/bin/../lib/gcc/msp430/4.7.0/../../../../msp430/lib/mcpu-430x/mmpy-16/msr20/mc20/libc.a(memset.o)
                                        0x159 (size before relaxing)
 .debug_str     0x00000000000004d6       0x11 /opt/msp430-47-expr/bin/../lib/gcc/msp430/4.7.0/../../../../msp430/lib/mcpu-430x/mmpy-16/msr20/mc20/libc.a(errno.o)
                                         0x94 (size before relaxing)

.debug_loc      0x0000000000000000     0x1887
 *(.debug_loc)
 .debug_loc     0x0000000000000000       0x21 /opt/msp430-47-expr/bin/../lib/gcc/msp430/4.7.0/../../../../msp430/lib/mcpu-430x/mmpy-16/msr20/mc20/libc.a(atol.o)
 .debug_loc     0x0000000000000021       0xd2 /opt/msp430-47-expr/bin/../lib/gcc/msp430/4.7.0/../../../../msp430/lib/mcpu-430x/mmpy-16/msr20/mc20/libc.a(atoi.o)
 .debug_loc     0x00000000000000f3      0x2b2 /opt/msp430-47-expr/bin/../lib/gcc/msp430/4.7.0/../../../../msp430/lib/mcpu-430x/mmpy-16/msr20/mc20/libc.a(strtol.o)
 .debug_loc     0x00000000000003a5       0x78 /opt/msp430-47-expr/bin/../lib/gcc/msp430/4.7.0/../../../../msp430/lib/mcpu-430x/mmpy-16/msr20/mc20/libc.a(printf.o)
 .debug_loc     0x000000000000041d      0xc0e /opt/msp430-47-expr/bin/../lib/gcc/msp430/4.7.0/../../../../msp430/lib/mcpu-430x/mmpy-16/msr20/mc20/libc.a(vuprintf.o)
 .debug_loc     0x000000000000102b       0x3e /opt/msp430-47-expr/bin/../lib/gcc/msp430/4.7.0/../../../../msp430/lib/mcpu-430x/mmpy-16/msr20/mc20/libc.a(puts.o)
 .debug_loc     0x0000000000001069       0x78 /opt/msp430-47-expr/bin/../lib/gcc/msp430/4.7.0/../../../../msp430/lib/mcpu-430x/mmpy-16/msr20/mc20/libc.a(rand.o)
 .debug_loc     0x00000000000010e1       0x7a /opt/msp430-47-expr/bin/../lib/gcc/msp430/4.7.0/../../../../msp430/lib/mcpu-430x/mmpy-16/msr20/mc20/libc.a(strncmp.o)
 .debug_loc     0x000000000000115b       0x6d /opt/msp430-47-expr/bin/../lib/gcc/msp430/4.7.0/../../../../msp430/lib/mcpu-430x/mmpy-16/msr20/mc20/libc.a(memcmp.o)
 .debug_loc     0x00000000000011c8      0x2c3 /opt/msp430-47-expr/bin/../lib/gcc/msp430/4.7.0/../../../../msp430/lib/mcpu-430x/mmpy-16/msr20/mc20/libc.a(memcpy.o)
 .debug_loc     0x000000000000148b      0x2c3 /opt/msp430-47-expr/bin/../lib/gcc/msp430/4.7.0/../../../../msp430/lib/mcpu-430x/mmpy-16/msr20/mc20/libc.a(memmove.o)
 .debug_loc     0x000000000000174e      0x139 /opt/msp430-47-expr/bin/../lib/gcc/msp430/4.7.0/../../../../msp430/lib/mcpu-430x/mmpy-16/msr20/mc20/libc.a(memset.o)

.debug_macinfo
 *(.debug_macinfo)

.debug_pubtypes
 *(.debug_pubtypes)

.debug_ranges   0x0000000000000000      0x110
 *(.debug_ranges)
 .debug_ranges  0x0000000000000000       0x10 /opt/msp430-47-expr/bin/../lib/gcc/msp430/4.7.0/../../../../msp430/lib/mcpu-430x/mmpy-16/msr20/mc20/libc.a(atol.o)
 .debug_ranges  0x0000000000000010       0x10 /opt/msp430-47-expr/bin/../lib/gcc/msp430/4.7.0/../../../../msp430/lib/mcpu-430x/mmpy-16/msr20/mc20/libc.a(atoi.o)
 .debug_ranges  0x0000000000000020       0x10 /opt/msp430-47-expr/bin/../lib/gcc/msp430/4.7.0/../../../../msp430/lib/mcpu-430x/mmpy-16/msr20/mc20/libc.a(strtol.o)
 .debug_ranges  0x0000000000000030       0x18 /opt/msp430-47-expr/bin/../lib/gcc/msp430/4.7.0/../../../../msp430/lib/mcpu-430x/mmpy-16/msr20/mc20/libc.a(printf.o)
 .debug_ranges  0x0000000000000048       0x48 /opt/msp430-47-expr/bin/../lib/gcc/msp430/4.7.0/../../../../msp430/lib/mcpu-430x/mmpy-16/msr20/mc20/libc.a(vuprintf.o)
 .debug_ranges  0x0000000000000090       0x10 /opt/msp430-47-expr/bin/../lib/gcc/msp430/4.7.0/../../../../msp430/lib/mcpu-430x/mmpy-16/msr20/mc20/libc.a(puts.o)
 .debug_ranges  0x00000000000000a0       0x20 /opt/msp430-47-expr/bin/../lib/gcc/msp430/4.7.0/../../../../msp430/lib/mcpu-430x/mmpy-16/msr20/mc20/libc.a(rand.o)
 .debug_ranges  0x00000000000000c0       0x10 /opt/msp430-47-expr/bin/../lib/gcc/msp430/4.7.0/../../../../msp430/lib/mcpu-430x/mmpy-16/msr20/mc20/libc.a(strncmp.o)
 .debug_ranges  0x00000000000000d0       0x10 /opt/msp430-47-expr/bin/../lib/gcc/msp430/4.7.0/../../../../msp430/lib/mcpu-430x/mmpy-16/msr20/mc20/libc.a(memcmp.o)
 .debug_ranges  0x00000000000000e0       0x10 /opt/msp430-47-expr/bin/../lib/gcc/msp430/4.7.0/../../../../msp430/lib/mcpu-430x/mmpy-16/msr20/mc20/libc.a(memcpy.o)
 .debug_ranges  0x00000000000000f0       0x10 /opt/msp430-47-expr/bin/../lib/gcc/msp430/4.7.0/../../../../msp430/lib/mcpu-430x/mmpy-16/msr20/mc20/libc.a(memmove.o)
 .debug_ranges  0x0000000000000100       0x10 /opt/msp430-47-expr/bin/../lib/gcc/msp430/4.7.0/../../../../msp430/lib/mcpu-430x/mmpy-16/msr20/mc20/libc.a(memset.o)
                0x0000000000005c00                PROVIDE (__stack, (ORIGIN (ram) + 0x4000))
                0x0000000000007192                __data_start_rom = _etext
                0x0000000000007400                __data_end_rom = (_etext + SIZEOF (.data))
OUTPUT(udp-server.rm090 elf32-msp430)

.gnu.attributes
                0x0000000000000000       0x11
 .gnu.attributes
                0x0000000000000000       0x11 /opt/msp430-47-expr/bin/../lib/gcc/msp430/4.7.0/mcpu-430x/mmpy-16/msr20/mc20/crt0ivtbl64.o
 .gnu.attributes
                0x0000000000000011       0x11 udp-server.co
 .gnu.attributes
                0x0000000000000022       0x11 obj_rm090/contiki-rm090-main.o
 .gnu.attributes
                0x0000000000000033       0x11 contiki-rm090.a(param-repo.o)
 .gnu.attributes
                0x0000000000000044       0x11 contiki-rm090.a(serial-control-)
 .gnu.attributes
                0x0000000000000055       0x11 contiki-rm090.a(contiki-rm090-p)
 .gnu.attributes
                0x0000000000000066       0x11 contiki-rm090.a(uart1.o)
 .gnu.attributes
                0x0000000000000077       0x11 contiki-rm090.a(uart1-putchar.o)
 .gnu.attributes
                0x0000000000000088       0x11 contiki-rm090.a(sensors.o)
 .gnu.attributes
                0x0000000000000099       0x11 contiki-rm090.a(button-sensor.o)
 .gnu.attributes
                0x00000000000000aa       0x11 contiki-rm090.a(radio-sensor.o)
 .gnu.attributes
                0x00000000000000bb       0x11 contiki-rm090.a(cc2520.o)
 .gnu.attributes
                0x00000000000000cc       0x11 contiki-rm090.a(cc2520-arch.o)
 .gnu.attributes
                0x00000000000000dd       0x11 contiki-rm090.a(msp430.o)
 .gnu.attributes
                0x00000000000000ee       0x11 contiki-rm090.a(clock.o)
 .gnu.attributes
                0x00000000000000ff       0x11 contiki-rm090.a(leds.o)
 .gnu.attributes
                0x0000000000000110       0x11 contiki-rm090.a(leds-arch.o)
 .gnu.attributes
                0x0000000000000121       0x11 contiki-rm090.a(watchdog.o)
 .gnu.attributes
                0x0000000000000132       0x11 contiki-rm090.a(rtimer-arch.o)
 .gnu.attributes
                0x0000000000000143       0x11 contiki-rm090.a(ctimer.o)
 .gnu.attributes
                0x0000000000000154       0x11 contiki-rm090.a(autostart.o)
 .gnu.attributes
                0x0000000000000165       0x11 contiki-rm090.a(energest.o)
 .gnu.attributes
                0x0000000000000176       0x11 contiki-rm090.a(etimer.o)
 .gnu.attributes
                0x0000000000000187       0x11 contiki-rm090.a(process.o)
 .gnu.attributes
                0x0000000000000198       0x11 contiki-rm090.a(rtimer.o)
 .gnu.attributes
                0x00000000000001a9       0x11 contiki-rm090.a(timer.o)
 .gnu.attributes
                0x00000000000001ba       0x11 contiki-rm090.a(serial-line.o)
 .gnu.attributes
                0x00000000000001cb       0x11 contiki-rm090.a(list.o)
 .gnu.attributes
                0x00000000000001dc       0x11 contiki-rm090.a(ringbuf.o)
 .gnu.attributes
                0x00000000000001ed       0x11 contiki-rm090.a(uip-ds6.o)
 .gnu.attributes
                0x00000000000001fe       0x11 contiki-rm090.a(uip-ds6-route.o)
 .gnu.attributes
                0x000000000000020f       0x11 contiki-rm090.a(uip6.o)
 .gnu.attributes
                0x0000000000000220       0x11 contiki-rm090.a(uip-ds6-nbr.o)
 .gnu.attributes
                0x0000000000000231       0x11 contiki-rm090.a(uip-nd6.o)
 .gnu.attributes
                0x0000000000000242       0x11 contiki-rm090.a(sicslowpan.o)
 .gnu.attributes
                0x0000000000000253       0x11 contiki-rm090.a(tcpip.o)
 .gnu.attributes
                0x0000000000000264       0x11 contiki-rm090.a(uip-debug.o)
 .gnu.attributes
                0x0000000000000275       0x11 contiki-rm090.a(rpl-control.o)
 .gnu.attributes
                0x0000000000000286       0x11 contiki-rm090.a(rpl-ext-header.)
 .gnu.attributes
                0x0000000000000297       0x11 contiki-rm090.a(rpl.o)
 .gnu.attributes
                0x00000000000002a8       0x11 contiki-rm090.a(rpl-dag.o)
 .gnu.attributes
                0x00000000000002b9       0x11 contiki-rm090.a(queuebuf.o)
 .gnu.attributes
                0x00000000000002ca       0x11 contiki-rm090.a(nbr-table.o)
 .gnu.attributes
                0x00000000000002db       0x11 contiki-rm090.a(packetbuf.o)
 .gnu.attributes
                0x00000000000002ec       0x11 contiki-rm090.a(linkaddr.o)
 .gnu.attributes
                0x00000000000002fd       0x11 contiki-rm090.a(link-stats.o)
 .gnu.attributes
                0x000000000000030e       0x11 contiki-rm090.a(framer-802154.o)
 .gnu.attributes
                0x000000000000031f       0x11 contiki-rm090.a(csma.o)
 .gnu.attributes
                0x0000000000000330       0x11 contiki-rm090.a(frame802154.o)
 .gnu.attributes
                0x0000000000000341       0x11 contiki-rm090.a(mac.o)
 .gnu.attributes
                0x0000000000000352       0x11 contiki-rm090.a(macstats.o)
 .gnu.attributes
                0x0000000000000363       0x11 contiki-rm090.a(nullrdc.o)
 .gnu.attributes
                0x0000000000000374       0x11 contiki-rm090.a(nullsec.o)
 .gnu.attributes
                0x0000000000000385       0x11 contiki-rm090.a(base64.o)
 .gnu.attributes
                0x0000000000000396       0x11 contiki-rm090.a(spi.o)
 .gnu.attributes
                0x00000000000003a7       0x11 contiki-rm090.a(stimer.o)
 .gnu.attributes
                0x00000000000003b8       0x11 contiki-rm090.a(memb.o)
 .gnu.attributes
                0x00000000000003c9       0x11 contiki-rm090.a(random.o)
 .gnu.attributes
                0x00000000000003da       0x11 contiki-rm090.a(uip-icmp6.o)
 .gnu.attributes
                0x00000000000003eb       0x11 contiki-rm090.a(rpl-icmp6.o)
 .gnu.attributes
                0x00000000000003fc       0x11 contiki-rm090.a(rpl-of0.o)
 .gnu.attributes
                0x000000000000040d       0x11 contiki-rm090.a(rpl-timers.o)
 .gnu.attributes
                0x000000000000041e       0x11 contiki-rm090.a(rpl-nbr-policy.)
 .gnu.attributes
                0x000000000000042f       0x11 contiki-rm090.a(rpl-mrhof.o)
 .gnu.attributes
                0x0000000000000440       0x11 contiki-rm090.a(mac-sequence.o)
 .gnu.attributes
                0x0000000000000451       0x11 /opt/msp430-47-expr/bin/../lib/gcc/msp430/4.7.0/mcpu-430x/mmpy-16/msr20/mc20/libgcc.a(_udivmod16.o)
 .gnu.attributes
                0x0000000000000462       0x11 /opt/msp430-47-expr/bin/../lib/gcc/msp430/4.7.0/mcpu-430x/mmpy-16/msr20/mc20/libgcc.a(_divmod16.o)
 .gnu.attributes
                0x0000000000000473       0x11 /opt/msp430-47-expr/bin/../lib/gcc/msp430/4.7.0/mcpu-430x/mmpy-16/msr20/mc20/libgcc.a(_udivmod32.o)
 .gnu.attributes
                0x0000000000000484       0x11 /opt/msp430-47-expr/bin/../lib/gcc/msp430/4.7.0/mcpu-430x/mmpy-16/msr20/mc20/libgcc.a(_divmod32.o)
 .gnu.attributes
                0x0000000000000495       0x11 /opt/msp430-47-expr/bin/../lib/gcc/msp430/4.7.0/../../../../msp430/lib/mcpu-430x/mmpy-16/msr20/mc20/libc.a(atol.o)
 .gnu.attributes
                0x00000000000004a6       0x11 /opt/msp430-47-expr/bin/../lib/gcc/msp430/4.7.0/../../../../msp430/lib/mcpu-430x/mmpy-16/msr20/mc20/libc.a(atoi.o)
 .gnu.attributes
                0x00000000000004b7       0x11 /opt/msp430-47-expr/bin/../lib/gcc/msp430/4.7.0/../../../../msp430/lib/mcpu-430x/mmpy-16/msr20/mc20/libc.a(strtol.o)
 .gnu.attributes
                0x00000000000004c8       0x11 /opt/msp430-47-expr/bin/../lib/gcc/msp430/4.7.0/../../../../msp430/lib/mcpu-430x/mmpy-16/msr20/mc20/libc.a(printf.o)
 .gnu.attributes
                0x00000000000004d9       0x11 /opt/msp430-47-expr/bin/../lib/gcc/msp430/4.7.0/../../../../msp430/lib/mcpu-430x/mmpy-16/msr20/mc20/libc.a(vuprintf.o)
 .gnu.attributes
                0x00000000000004ea       0x11 /opt/msp430-47-expr/bin/../lib/gcc/msp430/4.7.0/../../../../msp430/lib/mcpu-430x/mmpy-16/msr20/mc20/libc.a(puts.o)
 .gnu.attributes
                0x00000000000004fb       0x11 /opt/msp430-47-expr/bin/../lib/gcc/msp430/4.7.0/../../../../msp430/lib/mcpu-430x/mmpy-16/msr20/mc20/libc.a(rand.o)
 .gnu.attributes
                0x000000000000050c       0x11 /opt/msp430-47-expr/bin/../lib/gcc/msp430/4.7.0/../../../../msp430/lib/mcpu-430x/mmpy-16/msr20/mc20/libc.a(strncmp.o)
 .gnu.attributes
                0x000000000000051d       0x11 /opt/msp430-47-expr/bin/../lib/gcc/msp430/4.7.0/../../../../msp430/lib/mcpu-430x/mmpy-16/msr20/mc20/libc.a(memcmp.o)
 .gnu.attributes
                0x000000000000052e       0x11 /opt/msp430-47-expr/bin/../lib/gcc/msp430/4.7.0/../../../../msp430/lib/mcpu-430x/mmpy-16/msr20/mc20/libc.a(memcpy.o)
 .gnu.attributes
                0x000000000000053f       0x11 /opt/msp430-47-expr/bin/../lib/gcc/msp430/4.7.0/../../../../msp430/lib/mcpu-430x/mmpy-16/msr20/mc20/libc.a(memmove.o)
 .gnu.attributes
                0x0000000000000550       0x11 /opt/msp430-47-expr/bin/../lib/gcc/msp430/4.7.0/../../../../msp430/lib/mcpu-430x/mmpy-16/msr20/mc20/libc.a(memset.o)
 .gnu.attributes
                0x0000000000000561       0x11 /opt/msp430-47-expr/bin/../lib/gcc/msp430/4.7.0/../../../../msp430/lib/mcpu-430x/mmpy-16/msr20/mc20/libc.a(ldiv.o)
 .gnu.attributes
                0x0000000000000572       0x11 /opt/msp430-47-expr/bin/../lib/gcc/msp430/4.7.0/../../../../msp430/lib/mcpu-430x/mmpy-16/msr20/mc20/libc.a(errno.o)
 .gnu.attributes
                0x0000000000000583       0x11 /opt/msp430-47-expr/bin/../lib/gcc/msp430/4.7.0/mcpu-430x/mmpy-16/msr20/mc20/libgcc.a(_mulsi3.o)
 .gnu.attributes
                0x0000000000000594       0x11 /opt/msp430-47-expr/bin/../lib/gcc/msp430/4.7.0/mcpu-430x/mmpy-16/msr20/mc20/libgcc.a(_udivmod64.o)
 .gnu.attributes
                0x00000000000005a5       0x11 /opt/msp430-47-expr/bin/../lib/gcc/msp430/4.7.0/mcpu-430x/mmpy-16/msr20/mc20/libcrt0.a(_reset_vector__.o)
 .gnu.attributes
                0x00000000000005b6       0x11 /opt/msp430-47-expr/bin/../lib/gcc/msp430/4.7.0/mcpu-430x/mmpy-16/msr20/mc20/libcrt0.a(__watchdog_support.o)
 .gnu.attributes
                0x00000000000005c7       0x11 /opt/msp430-47-expr/bin/../lib/gcc/msp430/4.7.0/mcpu-430x/mmpy-16/msr20/mc20/libcrt0.a(__init_stack.o)
 .gnu.attributes
                0x00000000000005d8       0x11 /opt/msp430-47-expr/bin/../lib/gcc/msp430/4.7.0/mcpu-430x/mmpy-16/msr20/mc20/libcrt0.a(__low_level_init.o)
 .gnu.attributes
                0x00000000000005e9       0x11 /opt/msp430-47-expr/bin/../lib/gcc/msp430/4.7.0/mcpu-430x/mmpy-16/msr20/mc20/libcrt0.a(_copy_data.o)
 .gnu.attributes
                0x00000000000005fa       0x11 /opt/msp430-47-expr/bin/../lib/gcc/msp430/4.7.0/mcpu-430x/mmpy-16/msr20/mc20/libcrt0.a(_clear_bss.o)
 .gnu.attributes
                0x000000000000060b       0x11 /opt/msp430-47-expr/bin/../lib/gcc/msp430/4.7.0/mcpu-430x/mmpy-16/msr20/mc20/libcrt0.a(__stop_progExec__.o)
 .gnu.attributes
                0x000000000000061c       0x11 /opt/msp430-47-expr/bin/../lib/gcc/msp430/4.7.0/mcpu-430x/mmpy-16/msr20/mc20/libcrt0.a(_endless_loop__.o)
 .gnu.attributes
                0x000000000000062d       0x11 /opt/msp430-47-expr/bin/../lib/gcc/msp430/4.7.0/mcpu-430x/mmpy-16/msr20/mc20/libcrt0.a(_unexpected_.o)
